(lp1
((lp2
(lp3
(ibasic
Map_Basic
p4
(dp5
S'kind'
p6
I0
sS'move_consumption'
p7
I1
sS'score'
p8
I0
sba(ibasic
Map_Basic
p9
(dp10
g6
I0
sg7
I1
sg8
I0
sba(ibasic
Map_Basic
p11
(dp12
g6
I1
sg7
I2
sg8
I0
sba(ibasic
Map_Basic
p13
(dp14
g6
I1
sg7
I2
sg8
I0
sba(ibasic
Map_Basic
p15
(dp16
g6
I1
sg7
I2
sg8
I0
sba(ibasic
Map_Basic
p17
(dp18
g6
I1
sg7
I2
sg8
I0
sba(ibasic
Map_Basic
p19
(dp20
g6
I1
sg7
I2
sg8
I0
sba(ibasic
Map_Basic
p21
(dp22
g6
I0
sg7
I1
sg8
I0
sbaa(lp23
(ibasic
Map_Mirror
p24
(dp25
g6
I8
sg7
I1
sg8
I0
sS'out'
p26
(I3
I0
tp27
sba(ibasic
Map_Basic
p28
(dp29
g6
I0
sg7
I1
sg8
I0
sba(ibasic
Map_Basic
p30
(dp31
g6
I1
sg7
I2
sg8
I0
sba(ibasic
Map_Basic
p32
(dp33
g6
I1
sg7
I2
sg8
I0
sba(ibasic
Map_Basic
p34
(dp35
g6
I1
sg7
I2
sg8
I0
sba(ibasic
Map_Basic
p36
(dp37
g6
I1
sg7
I2
sg8
I0
sba(ibasic
Map_Basic
p38
(dp39
g6
I1
sg7
I2
sg8
I0
sba(ibasic
Map_Basic
p40
(dp41
g6
I0
sg7
I1
sg8
I0
sbaa(lp42
(ibasic
Map_Basic
p43
(dp44
g6
I0
sg7
I1
sg8
I0
sba(ibasic
Map_Basic
p45
(dp46
g6
I0
sg7
I1
sg8
I0
sba(ibasic
Map_Basic
p47
(dp48
g6
I1
sg7
I2
sg8
I0
sba(ibasic
Map_Basic
p49
(dp50
g6
I1
sg7
I2
sg8
I0
sba(ibasic
Map_Basic
p51
(dp52
g6
I1
sg7
I2
sg8
I0
sba(ibasic
Map_Basic
p53
(dp54
g6
I1
sg7
I2
sg8
I0
sba(ibasic
Map_Basic
p55
(dp56
g6
I1
sg7
I2
sg8
I0
sba(ibasic
Map_Basic
p57
(dp58
g6
I0
sg7
I1
sg8
I0
sbaa(lp59
(ibasic
Map_Basic
p60
(dp61
g6
I0
sg7
I1
sg8
I0
sba(ibasic
Map_Basic
p62
(dp63
g6
I0
sg7
I1
sg8
I0
sba(ibasic
Map_Basic
p64
(dp65
g6
I1
sg7
I2
sg8
I0
sba(ibasic
Map_Basic
p66
(dp67
g6
I1
sg7
I2
sg8
I0
sba(ibasic
Map_Basic
p68
(dp69
g6
I1
sg7
I2
sg8
I0
sba(ibasic
Map_Basic
p70
(dp71
g6
I1
sg7
I2
sg8
I0
sba(ibasic
Map_Basic
p72
(dp73
g6
I1
sg7
I2
sg8
I0
sba(ibasic
Map_Basic
p74
(dp75
g6
I0
sg7
I1
sg8
I0
sbaa(lp76
(ibasic
Map_Basic
p77
(dp78
g6
I0
sg7
I1
sg8
I0
sba(ibasic
Map_Basic
p79
(dp80
g6
I0
sg7
I1
sg8
I0
sba(ibasic
Map_Basic
p81
(dp82
g6
I1
sg7
I2
sg8
I0
sba(ibasic
Map_Basic
p83
(dp84
g6
I1
sg7
I2
sg8
I0
sba(ibasic
Map_Basic
p85
(dp86
g6
I1
sg7
I2
sg8
I0
sba(ibasic
Map_Basic
p87
(dp88
g6
I1
sg7
I2
sg8
I0
sba(ibasic
Map_Basic
p89
(dp90
g6
I1
sg7
I2
sg8
I0
sba(ibasic
Map_Basic
p91
(dp92
g6
I0
sg7
I1
sg8
I0
sbaa(lp93
(ibasic
Map_Basic
p94
(dp95
g6
I0
sg7
I1
sg8
I0
sba(ibasic
Map_Basic
p96
(dp97
g6
I0
sg7
I1
sg8
I0
sba(ibasic
Map_Basic
p98
(dp99
g6
I1
sg7
I2
sg8
I0
sba(ibasic
Map_Basic
p100
(dp101
g6
I1
sg7
I2
sg8
I0
sba(ibasic
Map_Basic
p102
(dp103
g6
I1
sg7
I2
sg8
I0
sba(ibasic
Map_Basic
p104
(dp105
g6
I1
sg7
I2
sg8
I0
sba(ibasic
Map_Basic
p106
(dp107
g6
I1
sg7
I2
sg8
I0
sba(ibasic
Map_Basic
p108
(dp109
g6
I0
sg7
I1
sg8
I0
sbaa(lp110
(ibasic
Map_Basic
p111
(dp112
g6
I0
sg7
I1
sg8
I0
sba(ibasic
Map_Basic
p113
(dp114
g6
I0
sg7
I1
sg8
I0
sba(ibasic
Map_Basic
p115
(dp116
g6
I1
sg7
I2
sg8
I0
sba(ibasic
Map_Basic
p117
(dp118
g6
I1
sg7
I2
sg8
I0
sba(ibasic
Map_Basic
p119
(dp120
g6
I1
sg7
I2
sg8
I0
sba(ibasic
Map_Basic
p121
(dp122
g6
I1
sg7
I2
sg8
I0
sba(ibasic
Map_Basic
p123
(dp124
g6
I1
sg7
I2
sg8
I0
sba(ibasic
Map_Basic
p125
(dp126
g6
I0
sg7
I1
sg8
I0
sbaa(lp127
(ibasic
Map_Basic
p128
(dp129
g6
I0
sg7
I1
sg8
I0
sba(ibasic
Map_Basic
p130
(dp131
g6
I0
sg7
I1
sg8
I0
sba(ibasic
Map_Basic
p132
(dp133
g6
I1
sg7
I2
sg8
I0
sba(ibasic
Map_Basic
p134
(dp135
g6
I1
sg7
I2
sg8
I0
sba(ibasic
Map_Basic
p136
(dp137
g6
I1
sg7
I2
sg8
I0
sba(ibasic
Map_Basic
p138
(dp139
g6
I1
sg7
I2
sg8
I0
sba(ibasic
Map_Basic
p140
(dp141
g6
I1
sg7
I2
sg8
I0
sba(ibasic
Map_Basic
p142
(dp143
g6
I0
sg7
I1
sg8
I0
sbaa(lp144
(lp145
(ibasic
Base_Unit
p146
(dp147
g6
I6
sS'strength'
p148
I10
sS'move_speed'
p149
I0
sS'life'
p150
I21
sS'up'
p151
I0
sS'defence'
p152
I12
sS'time'
p153
I0
sS'position'
p154
(I0
I0
tp155
sS'move_range'
p156
I6
sS'speed'
p157
I90
sS'attack_range'
p158
(lp159
sba(ibasic
Base_Unit
p160
(dp161
g6
I2
sg148
I17
sg149
I3
sg150
I25
sg151
I0
sg152
I12
sg153
I0
sg154
(I1
I0
tp162
sg156
I6
sg157
I90
sg158
(lp163
I2
asba(ibasic
Base_Unit
p164
(dp165
g6
I3
sg148
I15
sg149
I2
sg150
I21
sg151
I0
sg152
I10
sg153
I0
sg154
(I0
I2
tp166
sg156
I8
sg157
I95
sg158
(lp167
I1
asbaa(lp168
(ibasic
Base_Unit
p169
(dp170
g6
I7
sg148
I15
sg149
I2
sg150
I21
sg151
I0
sg152
I10
sg153
I0
sg154
(I3
I3
tp171
sg156
I8
sg157
I95
sg158
g167
sba(ibasic
Base_Unit
p172
(dp173
g6
I2
sg148
I17
sg149
I3
sg150
I25
sg151
I0
sg152
I12
sg153
I0
sg154
(I3
I2
tp174
sg156
I6
sg157
I90
sg158
g163
sba(ibasic
Base_Unit
p175
(dp176
g6
I1
sg148
I17
sg149
I4
sg150
I25
sg151
I0
sg152
I13
sg153
I0
sg154
(I3
I1
tp177
sg156
I7
sg157
I90
sg158
(lp178
I1
asbaa(lp179
S'Sample'
p180
aS'Player'
p181
atp182
a(lp183
(ibasic
Round_Begin_Info
p184
(dp185
S'range'
p186
(lp187
(I0
I0
tp188
a(I0
I1
tp189
a(I2
I0
tp190
a(I1
I1
tp191
a(I3
I0
tp192
a(I2
I1
tp193
a(I1
I2
tp194
a(I4
I0
tp195
a(I2
I2
tp196
a(I0
I3
tp197
asS'base'
p198
(lp199
(lp200
(ibasic
Hero
p201
(dp202
g6
I6
sg148
I17
sg149
I6
sg150
I55
sg151
I0
sg152
I15
sg153
I0
sg154
g188
sg156
I5
sg157
I90
sg158
(lp203
I1
asba(ibasic
Base_Unit
p204
(dp205
g6
I2
sg148
I17
sg149
I3
sg150
I25
sg151
I0
sg152
I12
sg153
I0
sg154
(I1
I0
tp206
sg156
I6
sg157
I90
sg158
(lp207
I2
asba(ibasic
Base_Unit
p208
(dp209
g6
I3
sg148
I15
sg149
I2
sg150
I21
sg151
I0
sg152
I10
sg153
I0
sg154
(I0
I2
tp210
sg156
I8
sg157
I95
sg158
(lp211
I1
asbaa(lp212
(ibasic
Hero
p213
(dp214
g6
I7
sg148
I20
sg149
I6
sg150
I40
sg151
I0
sg152
I13
sg153
I0
sg154
(I3
I3
tp215
sg156
I6
sg157
I100
sg158
(lp216
I1
asba(ibasic
Base_Unit
p217
(dp218
g6
I1
sg148
I17
sg149
I4
sg150
I25
sg151
I0
sg152
I13
sg153
I0
sg154
(I3
I1
tp219
sg156
I7
sg157
I90
sg158
(lp220
I1
asba(ibasic
Base_Unit
p221
(dp222
g6
I2
sg148
I17
sg149
I3
sg150
I25
sg151
I0
sg152
I12
sg153
I0
sg154
(I3
I2
tp223
sg156
I6
sg157
I90
sg158
g207
sbaasS'id'
p224
(I0
I0
tp225
sS'temple'
p226
(lp227
sba(ibasic
Command
p228
(dp229
S'move'
p230
(I3
I0
tp231
sS'order'
p232
I1
sS'target'
p233
(I1
I1
tp234
sba(ibasic
Round_End_Info
p235
(dp236
S'over'
p237
I00
sS'effect'
p238
(I01
I01
tp239
sg8
(lp240
I0
aI0
asg198
(lp241
(lp242
(ibasic
Hero
p243
(dp244
g6
I6
sg148
I17
sg149
I6
sg150
I53
sg151
I0
sg152
I15
sg153
I0
sg154
(I3
I0
tp245
sg156
I5
sg157
I90
sg158
(lp246
I1
asba(ibasic
Base_Unit
p247
(dp248
g6
I2
sg148
I17
sg149
I3
sg150
I25
sg151
I0
sg152
I12
sg153
I0
sg154
(I1
I0
tp249
sg156
I6
sg157
I90
sg158
(lp250
I2
asba(ibasic
Base_Unit
p251
(dp252
g6
I3
sg148
I15
sg149
I2
sg150
I21
sg151
I0
sg152
I10
sg153
I0
sg154
(I0
I2
tp253
sg156
I8
sg157
I95
sg158
(lp254
I1
asbaa(lp255
(ibasic
Hero
p256
(dp257
g6
I7
sg148
I20
sg149
I6
sg150
I40
sg151
I0
sg152
I13
sg153
I0
sg154
(I3
I3
tp258
sg156
I6
sg157
I100
sg158
(lp259
I1
asba(ibasic
Base_Unit
p260
(dp261
g6
I1
sg148
I17
sg149
I4
sg150
I21
sg151
I0
sg152
I13
sg153
I0
sg154
(I3
I1
tp262
sg156
I7
sg157
I90
sg158
(lp263
I1
asba(ibasic
Base_Unit
p264
(dp265
g6
I2
sg148
I17
sg149
I3
sg150
I25
sg151
I0
sg152
I12
sg153
I0
sg154
(I3
I2
tp266
sg156
I6
sg157
I90
sg158
g250
sbaasS'route'
p267
(lp268
(I0
I0
tp269
a(I1
I0
tp270
a(I2
I0
tp271
ag245
asS'change'
p272
(lp273
sbaa(lp274
(ibasic
Round_Begin_Info
p275
(dp276
g186
(lp277
(I3
I3
tp278
a(I4
I3
tp279
a(I2
I3
tp280
a(I3
I4
tp281
a(I5
I3
tp282
a(I4
I4
tp283
a(I4
I2
tp284
a(I1
I3
tp285
a(I2
I4
tp286
a(I2
I2
tp287
a(I3
I5
tp288
a(I4
I1
tp289
a(I2
I1
tp290
asg198
(lp291
(lp292
(ibasic
Hero
p293
(dp294
g6
I6
sg148
I17
sg149
I6
sg150
I53
sg151
I0
sg152
I15
sg153
I0
sg154
(I3
I0
tp295
sg156
I5
sg157
I90
sg158
(lp296
I1
asba(ibasic
Base_Unit
p297
(dp298
g6
I2
sg148
I17
sg149
I3
sg150
I25
sg151
I0
sg152
I12
sg153
I0
sg154
(I1
I0
tp299
sg156
I6
sg157
I90
sg158
(lp300
I2
asba(ibasic
Base_Unit
p301
(dp302
g6
I3
sg148
I15
sg149
I2
sg150
I21
sg151
I0
sg152
I10
sg153
I0
sg154
(I0
I2
tp303
sg156
I8
sg157
I95
sg158
(lp304
I1
asbaa(lp305
(ibasic
Hero
p306
(dp307
g6
I7
sg148
I20
sg149
I6
sg150
I40
sg151
I0
sg152
I13
sg153
I0
sg154
g278
sg156
I6
sg157
I100
sg158
(lp308
I1
asba(ibasic
Base_Unit
p309
(dp310
g6
I1
sg148
I17
sg149
I4
sg150
I21
sg151
I0
sg152
I13
sg153
I0
sg154
(I3
I1
tp311
sg156
I7
sg157
I90
sg158
(lp312
I1
asba(ibasic
Base_Unit
p313
(dp314
g6
I2
sg148
I17
sg149
I3
sg150
I25
sg151
I0
sg152
I12
sg153
I0
sg154
(I3
I2
tp315
sg156
I6
sg157
I90
sg158
g300
sbaasg224
(I1
I0
tp316
sg226
(lp317
sba(ibasic
Command
p318
(dp319
g230
(I4
I1
tp320
sg232
I0
sg233
Nsba(ibasic
Round_End_Info
p321
(dp322
g237
I00
sg238
(I-1
I-1
tp323
sg8
(lp324
I0
aI0
asg198
(lp325
(lp326
(ibasic
Hero
p327
(dp328
g6
I6
sg148
I17
sg149
I6
sg150
I53
sg151
I0
sg152
I15
sg153
I0
sg154
(I3
I0
tp329
sg156
I5
sg157
I90
sg158
(lp330
I1
asba(ibasic
Base_Unit
p331
(dp332
g6
I2
sg148
I17
sg149
I3
sg150
I25
sg151
I0
sg152
I12
sg153
I0
sg154
(I1
I0
tp333
sg156
I6
sg157
I90
sg158
(lp334
I2
asba(ibasic
Base_Unit
p335
(dp336
g6
I3
sg148
I15
sg149
I2
sg150
I21
sg151
I0
sg152
I10
sg153
I0
sg154
(I0
I2
tp337
sg156
I8
sg157
I95
sg158
(lp338
I1
asbaa(lp339
(ibasic
Hero
p340
(dp341
g6
I7
sg148
I20
sg149
I6
sg150
I40
sg151
I0
sg152
I12
sg153
I0
sg154
(I4
I1
tp342
sg156
I6
sg157
I100
sg158
(lp343
I1
asba(ibasic
Base_Unit
p344
(dp345
g6
I1
sg148
I17
sg149
I4
sg150
I21
sg151
I0
sg152
I13
sg153
I0
sg154
(I3
I1
tp346
sg156
I7
sg157
I90
sg158
(lp347
I1
asba(ibasic
Base_Unit
p348
(dp349
g6
I2
sg148
I17
sg149
I3
sg150
I25
sg151
I0
sg152
I12
sg153
I0
sg154
(I3
I2
tp350
sg156
I6
sg157
I90
sg158
g334
sbaasg267
(lp351
(I3
I3
tp352
a(I3
I2
tp353
a(I3
I1
tp354
ag342
asg272
(lp355
sbaa(lp356
(ibasic
Round_Begin_Info
p357
(dp358
g186
(lp359
(I1
I0
tp360
a(I2
I0
tp361
a(I0
I0
tp362
a(I1
I1
tp363
a(I2
I1
tp364
a(I0
I1
tp365
a(I1
I2
tp366
a(I4
I0
tp367
a(I2
I2
tp368
a(I5
I0
tp369
a(I1
I3
tp370
a(I6
I0
tp371
a(I5
I1
tp372
a(I2
I3
tp373
a(I0
I3
tp374
asg198
(lp375
(lp376
(ibasic
Hero
p377
(dp378
g6
I6
sg148
I17
sg149
I6
sg150
I53
sg151
I0
sg152
I15
sg153
I0
sg154
(I3
I0
tp379
sg156
I5
sg157
I90
sg158
(lp380
I1
asba(ibasic
Base_Unit
p381
(dp382
g6
I2
sg148
I17
sg149
I3
sg150
I25
sg151
I0
sg152
I12
sg153
I0
sg154
g360
sg156
I6
sg157
I90
sg158
(lp383
I2
asba(ibasic
Base_Unit
p384
(dp385
g6
I3
sg148
I15
sg149
I2
sg150
I21
sg151
I0
sg152
I10
sg153
I0
sg154
(I0
I2
tp386
sg156
I8
sg157
I95
sg158
(lp387
I1
asbaa(lp388
(ibasic
Hero
p389
(dp390
g6
I7
sg148
I20
sg149
I6
sg150
I40
sg151
I0
sg152
I12
sg153
I0
sg154
(I4
I1
tp391
sg156
I6
sg157
I100
sg158
(lp392
I1
asba(ibasic
Base_Unit
p393
(dp394
g6
I1
sg148
I17
sg149
I4
sg150
I21
sg151
I0
sg152
I13
sg153
I0
sg154
(I3
I1
tp395
sg156
I7
sg157
I90
sg158
(lp396
I1
asba(ibasic
Base_Unit
p397
(dp398
g6
I2
sg148
I17
sg149
I3
sg150
I25
sg151
I0
sg152
I12
sg153
I0
sg154
(I3
I2
tp399
sg156
I6
sg157
I90
sg158
g383
sbaasg224
(I0
I1
tp400
sg226
(lp401
sba(ibasic
Command
p402
(dp403
g230
(I2
I0
tp404
sg232
I1
sg233
(I1
I1
tp405
sba(ibasic
Round_End_Info
p406
(dp407
g237
I00
sg238
(I01
I-1
tp408
sg8
(lp409
I0
aI0
asg198
(lp410
(lp411
(ibasic
Hero
p412
(dp413
g6
I6
sg148
I17
sg149
I6
sg150
I53
sg151
I0
sg152
I15
sg153
I0
sg154
(I3
I0
tp414
sg156
I5
sg157
I90
sg158
(lp415
I1
asba(ibasic
Base_Unit
p416
(dp417
g6
I2
sg148
I17
sg149
I3
sg150
I25
sg151
I0
sg152
I12
sg153
I0
sg154
(I2
I0
tp418
sg156
I6
sg157
I90
sg158
(lp419
I2
asba(ibasic
Base_Unit
p420
(dp421
g6
I3
sg148
I15
sg149
I2
sg150
I21
sg151
I0
sg152
I10
sg153
I0
sg154
(I0
I2
tp422
sg156
I8
sg157
I95
sg158
(lp423
I1
asbaa(lp424
(ibasic
Hero
p425
(dp426
g6
I7
sg148
I20
sg149
I6
sg150
I40
sg151
I0
sg152
I12
sg153
I0
sg154
(I4
I1
tp427
sg156
I6
sg157
I100
sg158
(lp428
I1
asba(ibasic
Base_Unit
p429
(dp430
g6
I1
sg148
I17
sg149
I4
sg150
I17
sg151
I0
sg152
I13
sg153
I0
sg154
(I3
I1
tp431
sg156
I7
sg157
I90
sg158
(lp432
I1
asba(ibasic
Base_Unit
p433
(dp434
g6
I2
sg148
I17
sg149
I3
sg150
I25
sg151
I0
sg152
I12
sg153
I0
sg154
(I3
I2
tp435
sg156
I6
sg157
I90
sg158
g419
sbaasg267
(lp436
(I1
I0
tp437
ag418
asg272
(lp438
sbaa(lp439
(ibasic
Round_Begin_Info
p440
(dp441
g186
(lp442
(I3
I1
tp443
a(I2
I1
tp444
a(I5
I1
tp445
a(I4
I2
tp446
a(I4
I0
tp447
a(I1
I1
tp448
a(I2
I2
tp449
a(I6
I1
tp450
a(I5
I2
tp451
a(I5
I0
tp452
a(I0
I1
tp453
a(I1
I2
tp454
a(I1
I0
tp455
a(I3
I3
tp456
a(I7
I1
tp457
a(I6
I2
tp458
a(I6
I0
tp459
a(I4
I3
tp460
a(I0
I0
tp461
a(I2
I3
tp462
a(I7
I2
tp463
a(I7
I0
tp464
a(I5
I3
tp465
a(I1
I3
tp466
a(I3
I4
tp467
a(I6
I3
tp468
a(I4
I4
tp469
a(I2
I4
tp470
asg198
(lp471
(lp472
(ibasic
Hero
p473
(dp474
g6
I6
sg148
I17
sg149
I6
sg150
I53
sg151
I0
sg152
I15
sg153
I0
sg154
(I3
I0
tp475
sg156
I5
sg157
I90
sg158
(lp476
I1
asba(ibasic
Base_Unit
p477
(dp478
g6
I2
sg148
I17
sg149
I3
sg150
I25
sg151
I0
sg152
I12
sg153
I0
sg154
(I2
I0
tp479
sg156
I6
sg157
I90
sg158
(lp480
I2
asba(ibasic
Base_Unit
p481
(dp482
g6
I3
sg148
I15
sg149
I2
sg150
I21
sg151
I0
sg152
I10
sg153
I0
sg154
(I0
I2
tp483
sg156
I8
sg157
I95
sg158
(lp484
I1
asbaa(lp485
(ibasic
Hero
p486
(dp487
g6
I7
sg148
I20
sg149
I6
sg150
I40
sg151
I0
sg152
I12
sg153
I0
sg154
(I4
I1
tp488
sg156
I6
sg157
I100
sg158
(lp489
I1
asba(ibasic
Base_Unit
p490
(dp491
g6
I1
sg148
I17
sg149
I4
sg150
I17
sg151
I0
sg152
I13
sg153
I0
sg154
g443
sg156
I7
sg157
I90
sg158
(lp492
I1
asba(ibasic
Base_Unit
p493
(dp494
g6
I2
sg148
I17
sg149
I3
sg150
I25
sg151
I0
sg152
I12
sg153
I0
sg154
(I3
I2
tp495
sg156
I6
sg157
I90
sg158
g480
sbaasg224
(I1
I1
tp496
sg226
(lp497
sba(ibasic
Command
p498
(dp499
g230
(I4
I0
tp500
sg232
I1
sg233
(I0
I0
tp501
sba(ibasic
Round_End_Info
p502
(dp503
g237
I00
sg238
(I01
I01
tp504
sg8
(lp505
I0
aI0
asg198
(lp506
(lp507
(ibasic
Hero
p508
(dp509
g6
I6
sg148
I17
sg149
I6
sg150
I51
sg151
I0
sg152
I15
sg153
I0
sg154
(I3
I0
tp510
sg156
I5
sg157
I90
sg158
(lp511
I1
asba(ibasic
Base_Unit
p512
(dp513
g6
I2
sg148
I17
sg149
I3
sg150
I25
sg151
I0
sg152
I12
sg153
I0
sg154
(I2
I0
tp514
sg156
I6
sg157
I90
sg158
(lp515
I2
asba(ibasic
Base_Unit
p516
(dp517
g6
I3
sg148
I15
sg149
I2
sg150
I21
sg151
I0
sg152
I10
sg153
I0
sg154
(I0
I2
tp518
sg156
I8
sg157
I95
sg158
(lp519
I1
asbaa(lp520
(ibasic
Hero
p521
(dp522
g6
I7
sg148
I20
sg149
I6
sg150
I40
sg151
I0
sg152
I12
sg153
I0
sg154
(I4
I1
tp523
sg156
I6
sg157
I100
sg158
(lp524
I1
asba(ibasic
Base_Unit
p525
(dp526
g6
I1
sg148
I17
sg149
I4
sg150
I13
sg151
I0
sg152
I13
sg153
I0
sg154
(I4
I0
tp527
sg156
I7
sg157
I90
sg158
(lp528
I1
asba(ibasic
Base_Unit
p529
(dp530
g6
I2
sg148
I17
sg149
I3
sg150
I25
sg151
I0
sg152
I12
sg153
I0
sg154
(I3
I2
tp531
sg156
I6
sg157
I90
sg158
g515
sbaasg267
(lp532
(I3
I1
tp533
a(I4
I1
tp534
ag527
asg272
(lp535
sbaa(lp536
(ibasic
Round_Begin_Info
p537
(dp538
g186
(lp539
(I0
I2
tp540
a(I1
I2
tp541
a(I0
I3
tp542
a(I0
I1
tp543
a(I1
I1
tp544
a(I0
I0
tp545
a(I2
I2
tp546
a(I1
I3
tp547
a(I0
I4
tp548
a(I2
I1
tp549
a(I1
I0
tp550
a(I3
I1
tp551
a(I3
I2
tp552
a(I2
I3
tp553
a(I1
I4
tp554
a(I0
I5
tp555
a(I4
I1
tp556
a(I5
I1
tp557
a(I4
I2
tp558
a(I4
I0
tp559
asg198
(lp560
(lp561
(ibasic
Hero
p562
(dp563
g6
I6
sg148
I17
sg149
I6
sg150
I51
sg151
I0
sg152
I15
sg153
I0
sg154
(I3
I0
tp564
sg156
I5
sg157
I90
sg158
(lp565
I1
asba(ibasic
Base_Unit
p566
(dp567
g6
I2
sg148
I17
sg149
I3
sg150
I25
sg151
I0
sg152
I12
sg153
I0
sg154
(I2
I0
tp568
sg156
I6
sg157
I90
sg158
(lp569
I2
asba(ibasic
Base_Unit
p570
(dp571
g6
I3
sg148
I15
sg149
I2
sg150
I21
sg151
I0
sg152
I10
sg153
I0
sg154
g540
sg156
I8
sg157
I95
sg158
(lp572
I1
asbaa(lp573
(ibasic
Hero
p574
(dp575
g6
I7
sg148
I20
sg149
I6
sg150
I40
sg151
I0
sg152
I12
sg153
I0
sg154
(I4
I1
tp576
sg156
I6
sg157
I100
sg158
(lp577
I1
asba(ibasic
Base_Unit
p578
(dp579
g6
I1
sg148
I17
sg149
I4
sg150
I13
sg151
I0
sg152
I13
sg153
I0
sg154
(I4
I0
tp580
sg156
I7
sg157
I90
sg158
(lp581
I1
asba(ibasic
Base_Unit
p582
(dp583
g6
I2
sg148
I17
sg149
I3
sg150
I25
sg151
I0
sg152
I12
sg153
I0
sg154
(I3
I2
tp584
sg156
I6
sg157
I90
sg158
g569
sbaasg224
(I0
I2
tp585
sg226
(lp586
sba(ibasic
Command
p587
(dp588
g230
(I2
I2
tp589
sg232
I1
sg233
(I1
I2
tp590
sba(ibasic
Round_End_Info
p591
(dp592
g237
I00
sg238
(I01
I-1
tp593
sg8
(lp594
I0
aI0
asg198
(lp595
(lp596
(ibasic
Hero
p597
(dp598
g6
I6
sg148
I17
sg149
I6
sg150
I51
sg151
I0
sg152
I15
sg153
I0
sg154
(I3
I0
tp599
sg156
I5
sg157
I90
sg158
(lp600
I1
asba(ibasic
Base_Unit
p601
(dp602
g6
I2
sg148
I17
sg149
I3
sg150
I25
sg151
I0
sg152
I12
sg153
I0
sg154
(I2
I0
tp603
sg156
I6
sg157
I90
sg158
(lp604
I2
asba(ibasic
Base_Unit
p605
(dp606
g6
I3
sg148
I15
sg149
I2
sg150
I21
sg151
I0
sg152
I10
sg153
I0
sg154
(I2
I2
tp607
sg156
I8
sg157
I95
sg158
(lp608
I1
asbaa(lp609
(ibasic
Hero
p610
(dp611
g6
I7
sg148
I20
sg149
I6
sg150
I40
sg151
I0
sg152
I12
sg153
I0
sg154
(I4
I1
tp612
sg156
I6
sg157
I100
sg158
(lp613
I1
asba(ibasic
Base_Unit
p614
(dp615
g6
I1
sg148
I17
sg149
I4
sg150
I13
sg151
I0
sg152
I13
sg153
I0
sg154
(I4
I0
tp616
sg156
I7
sg157
I90
sg158
(lp617
I1
asba(ibasic
Base_Unit
p618
(dp619
g6
I2
sg148
I17
sg149
I3
sg150
I22
sg151
I0
sg152
I12
sg153
I0
sg154
(I3
I2
tp620
sg156
I6
sg157
I90
sg158
g604
sbaasg267
(lp621
(I0
I2
tp622
a(I1
I2
tp623
ag607
asg272
(lp624
sbaa(lp625
(ibasic
Round_Begin_Info
p626
(dp627
g186
(lp628
(I3
I2
tp629
a(I4
I2
tp630
a(I3
I3
tp631
a(I3
I1
tp632
a(I2
I1
tp633
a(I5
I2
tp634
a(I4
I3
tp635
a(I2
I3
tp636
a(I3
I4
tp637
a(I5
I1
tp638
a(I1
I1
tp639
a(I6
I1
tp640
a(I5
I0
tp641
a(I0
I1
tp642
a(I1
I2
tp643
a(I1
I0
tp644
asg198
(lp645
(lp646
(ibasic
Hero
p647
(dp648
g6
I6
sg148
I17
sg149
I6
sg150
I51
sg151
I0
sg152
I15
sg153
I0
sg154
(I3
I0
tp649
sg156
I5
sg157
I90
sg158
(lp650
I1
asba(ibasic
Base_Unit
p651
(dp652
g6
I2
sg148
I17
sg149
I3
sg150
I25
sg151
I0
sg152
I12
sg153
I0
sg154
(I2
I0
tp653
sg156
I6
sg157
I90
sg158
(lp654
I2
asba(ibasic
Base_Unit
p655
(dp656
g6
I3
sg148
I15
sg149
I2
sg150
I21
sg151
I0
sg152
I10
sg153
I0
sg154
(I2
I2
tp657
sg156
I8
sg157
I95
sg158
(lp658
I1
asbaa(lp659
(ibasic
Hero
p660
(dp661
g6
I7
sg148
I20
sg149
I6
sg150
I40
sg151
I0
sg152
I12
sg153
I0
sg154
(I4
I1
tp662
sg156
I6
sg157
I100
sg158
(lp663
I1
asba(ibasic
Base_Unit
p664
(dp665
g6
I1
sg148
I17
sg149
I4
sg150
I13
sg151
I0
sg152
I13
sg153
I0
sg154
(I4
I0
tp666
sg156
I7
sg157
I90
sg158
(lp667
I1
asba(ibasic
Base_Unit
p668
(dp669
g6
I2
sg148
I17
sg149
I3
sg150
I22
sg151
I0
sg152
I12
sg153
I0
sg154
g629
sg156
I6
sg157
I90
sg158
g654
sbaasg224
(I1
I2
tp670
sg226
(lp671
sba(ibasic
Command
p672
(dp673
g230
(I5
I0
tp674
sg232
I1
sg233
(I0
I0
tp675
sba(ibasic
Round_End_Info
p676
(dp677
g237
I01
sg238
(I01
I-1
tp678
sg8
(lp679
I0
aI0
asg198
(lp680
(lp681
(ibasic
Hero
p682
(dp683
g6
I6
sg148
I17
sg149
I6
sg150
I49
sg151
I0
sg152
I15
sg153
I0
sg154
(I3
I0
tp684
sg156
I5
sg157
I90
sg158
(lp685
I1
asba(ibasic
Base_Unit
p686
(dp687
g6
I2
sg148
I17
sg149
I3
sg150
I25
sg151
I0
sg152
I12
sg153
I0
sg154
(I2
I0
tp688
sg156
I6
sg157
I90
sg158
(lp689
I2
asba(ibasic
Base_Unit
p690
(dp691
g6
I3
sg148
I15
sg149
I2
sg150
I21
sg151
I0
sg152
I10
sg153
I0
sg154
(I2
I2
tp692
sg156
I8
sg157
I95
sg158
(lp693
I1
asbaa(lp694
(ibasic
Hero
p695
(dp696
g6
I7
sg148
I20
sg149
I6
sg150
I40
sg151
I0
sg152
I12
sg153
I0
sg154
(I4
I1
tp697
sg156
I6
sg157
I100
sg158
(lp698
I1
asba(ibasic
Base_Unit
p699
(dp700
g6
I1
sg148
I17
sg149
I4
sg150
I13
sg151
I0
sg152
I13
sg153
I0
sg154
(I4
I0
tp701
sg156
I7
sg157
I90
sg158
(lp702
I1
asba(ibasic
Base_Unit
p703
(dp704
g6
I2
sg148
I17
sg149
I3
sg150
I22
sg151
I0
sg152
I11
sg153
I0
sg154
(I5
I0
tp705
sg156
I6
sg157
I90
sg158
g689
sbaasg267
(lp706
(I3
I2
tp707
ag705
asg272
(lp708
sbaa.