(lp1
((lp2
(lp3
(ibasic
Map_Basic
p4
(dp5
S'kind'
p6
I0
sS'move_consumption'
p7
I1
sS'score'
p8
I0
sba(ibasic
Map_Basic
p9
(dp10
g6
I0
sg7
I1
sg8
I0
sba(ibasic
Map_Basic
p11
(dp12
g6
I1
sg7
I2
sg8
I0
sba(ibasic
Map_Basic
p13
(dp14
g6
I1
sg7
I2
sg8
I0
sba(ibasic
Map_Basic
p15
(dp16
g6
I1
sg7
I2
sg8
I0
sba(ibasic
Map_Basic
p17
(dp18
g6
I1
sg7
I2
sg8
I0
sba(ibasic
Map_Basic
p19
(dp20
g6
I1
sg7
I2
sg8
I0
sba(ibasic
Map_Basic
p21
(dp22
g6
I0
sg7
I1
sg8
I0
sbaa(lp23
(ibasic
Map_Mirror
p24
(dp25
g6
I8
sg7
I1
sg8
I0
sS'out'
p26
(I3
I0
tp27
sba(ibasic
Map_Basic
p28
(dp29
g6
I0
sg7
I1
sg8
I0
sba(ibasic
Map_Basic
p30
(dp31
g6
I1
sg7
I2
sg8
I0
sba(ibasic
Map_Basic
p32
(dp33
g6
I1
sg7
I2
sg8
I0
sba(ibasic
Map_Basic
p34
(dp35
g6
I1
sg7
I2
sg8
I0
sba(ibasic
Map_Basic
p36
(dp37
g6
I1
sg7
I2
sg8
I0
sba(ibasic
Map_Basic
p38
(dp39
g6
I1
sg7
I2
sg8
I0
sba(ibasic
Map_Basic
p40
(dp41
g6
I0
sg7
I1
sg8
I0
sbaa(lp42
(ibasic
Map_Basic
p43
(dp44
g6
I0
sg7
I1
sg8
I0
sba(ibasic
Map_Basic
p45
(dp46
g6
I0
sg7
I1
sg8
I0
sba(ibasic
Map_Basic
p47
(dp48
g6
I1
sg7
I2
sg8
I0
sba(ibasic
Map_Basic
p49
(dp50
g6
I1
sg7
I2
sg8
I0
sba(ibasic
Map_Basic
p51
(dp52
g6
I1
sg7
I2
sg8
I0
sba(ibasic
Map_Basic
p53
(dp54
g6
I1
sg7
I2
sg8
I0
sba(ibasic
Map_Basic
p55
(dp56
g6
I1
sg7
I2
sg8
I0
sba(ibasic
Map_Basic
p57
(dp58
g6
I0
sg7
I1
sg8
I0
sbaa(lp59
(ibasic
Map_Basic
p60
(dp61
g6
I0
sg7
I1
sg8
I0
sba(ibasic
Map_Basic
p62
(dp63
g6
I0
sg7
I1
sg8
I0
sba(ibasic
Map_Basic
p64
(dp65
g6
I1
sg7
I2
sg8
I0
sba(ibasic
Map_Basic
p66
(dp67
g6
I1
sg7
I2
sg8
I0
sba(ibasic
Map_Basic
p68
(dp69
g6
I1
sg7
I2
sg8
I0
sba(ibasic
Map_Basic
p70
(dp71
g6
I1
sg7
I2
sg8
I0
sba(ibasic
Map_Basic
p72
(dp73
g6
I1
sg7
I2
sg8
I0
sba(ibasic
Map_Basic
p74
(dp75
g6
I0
sg7
I1
sg8
I0
sbaa(lp76
(ibasic
Map_Basic
p77
(dp78
g6
I0
sg7
I1
sg8
I0
sba(ibasic
Map_Basic
p79
(dp80
g6
I0
sg7
I1
sg8
I0
sba(ibasic
Map_Basic
p81
(dp82
g6
I1
sg7
I2
sg8
I0
sba(ibasic
Map_Basic
p83
(dp84
g6
I1
sg7
I2
sg8
I0
sba(ibasic
Map_Basic
p85
(dp86
g6
I1
sg7
I2
sg8
I0
sba(ibasic
Map_Basic
p87
(dp88
g6
I1
sg7
I2
sg8
I0
sba(ibasic
Map_Basic
p89
(dp90
g6
I1
sg7
I2
sg8
I0
sba(ibasic
Map_Basic
p91
(dp92
g6
I0
sg7
I1
sg8
I0
sbaa(lp93
(ibasic
Map_Basic
p94
(dp95
g6
I0
sg7
I1
sg8
I0
sba(ibasic
Map_Basic
p96
(dp97
g6
I0
sg7
I1
sg8
I0
sba(ibasic
Map_Basic
p98
(dp99
g6
I1
sg7
I2
sg8
I0
sba(ibasic
Map_Basic
p100
(dp101
g6
I1
sg7
I2
sg8
I0
sba(ibasic
Map_Basic
p102
(dp103
g6
I1
sg7
I2
sg8
I0
sba(ibasic
Map_Basic
p104
(dp105
g6
I1
sg7
I2
sg8
I0
sba(ibasic
Map_Basic
p106
(dp107
g6
I1
sg7
I2
sg8
I0
sba(ibasic
Map_Basic
p108
(dp109
g6
I0
sg7
I1
sg8
I0
sbaa(lp110
(ibasic
Map_Basic
p111
(dp112
g6
I0
sg7
I1
sg8
I0
sba(ibasic
Map_Basic
p113
(dp114
g6
I0
sg7
I1
sg8
I0
sba(ibasic
Map_Basic
p115
(dp116
g6
I1
sg7
I2
sg8
I0
sba(ibasic
Map_Basic
p117
(dp118
g6
I1
sg7
I2
sg8
I0
sba(ibasic
Map_Basic
p119
(dp120
g6
I1
sg7
I2
sg8
I0
sba(ibasic
Map_Basic
p121
(dp122
g6
I1
sg7
I2
sg8
I0
sba(ibasic
Map_Basic
p123
(dp124
g6
I1
sg7
I2
sg8
I0
sba(ibasic
Map_Basic
p125
(dp126
g6
I0
sg7
I1
sg8
I0
sbaa(lp127
(ibasic
Map_Basic
p128
(dp129
g6
I0
sg7
I1
sg8
I0
sba(ibasic
Map_Basic
p130
(dp131
g6
I0
sg7
I1
sg8
I0
sba(ibasic
Map_Basic
p132
(dp133
g6
I1
sg7
I2
sg8
I0
sba(ibasic
Map_Basic
p134
(dp135
g6
I1
sg7
I2
sg8
I0
sba(ibasic
Map_Basic
p136
(dp137
g6
I1
sg7
I2
sg8
I0
sba(ibasic
Map_Basic
p138
(dp139
g6
I1
sg7
I2
sg8
I0
sba(ibasic
Map_Basic
p140
(dp141
g6
I1
sg7
I2
sg8
I0
sba(ibasic
Map_Basic
p142
(dp143
g6
I0
sg7
I1
sg8
I0
sbaa(lp144
(lp145
(ibasic
Base_Unit
p146
(dp147
g6
I6
sS'strength'
p148
I10
sS'move_speed'
p149
I0
sS'life'
p150
I21
sS'up'
p151
I0
sS'defence'
p152
I12
sS'time'
p153
I0
sS'position'
p154
(I0
I0
tp155
sS'move_range'
p156
I6
sS'speed'
p157
I90
sS'attack_range'
p158
(lp159
sba(ibasic
Base_Unit
p160
(dp161
g6
I2
sg148
I17
sg149
I3
sg150
I25
sg151
I0
sg152
I12
sg153
I0
sg154
(I1
I0
tp162
sg156
I6
sg157
I90
sg158
(lp163
I2
asba(ibasic
Base_Unit
p164
(dp165
g6
I3
sg148
I15
sg149
I2
sg150
I21
sg151
I0
sg152
I10
sg153
I0
sg154
(I0
I2
tp166
sg156
I8
sg157
I95
sg158
(lp167
I1
asbaa(lp168
(ibasic
Base_Unit
p169
(dp170
g6
I6
sg148
I15
sg149
I2
sg150
I21
sg151
I0
sg152
I10
sg153
I0
sg154
(I3
I3
tp171
sg156
I8
sg157
I95
sg158
g167
sba(ibasic
Base_Unit
p172
(dp173
g6
I2
sg148
I17
sg149
I3
sg150
I25
sg151
I0
sg152
I12
sg153
I0
sg154
(I3
I2
tp174
sg156
I6
sg157
I90
sg158
g163
sba(ibasic
Base_Unit
p175
(dp176
g6
I1
sg148
I17
sg149
I4
sg150
I25
sg151
I0
sg152
I13
sg153
I0
sg154
(I3
I1
tp177
sg156
I7
sg157
I90
sg158
(lp178
I1
asbaa(lp179
S'Sample'
p180
aS'Sample'
p181
atp182
a(lp183
(ibasic
Round_Begin_Info
p184
(dp185
S'range'
p186
(lp187
(I0
I0
tp188
a(I0
I1
tp189
a(I2
I0
tp190
a(I1
I1
tp191
a(I3
I0
tp192
a(I2
I1
tp193
a(I1
I2
tp194
a(I4
I0
tp195
a(I2
I2
tp196
a(I0
I3
tp197
asS'base'
p198
(lp199
(lp200
(ibasic
Hero
p201
(dp202
g6
I6
sg148
I17
sg149
I6
sg150
I55
sg151
I0
sg152
I15
sg153
I0
sg154
g188
sg156
I5
sg157
I90
sg158
(lp203
I1
asba(ibasic
Base_Unit
p204
(dp205
g6
I2
sg148
I17
sg149
I3
sg150
I25
sg151
I0
sg152
I12
sg153
I0
sg154
(I1
I0
tp206
sg156
I6
sg157
I90
sg158
(lp207
I2
asba(ibasic
Base_Unit
p208
(dp209
g6
I3
sg148
I15
sg149
I2
sg150
I21
sg151
I0
sg152
I10
sg153
I0
sg154
(I0
I2
tp210
sg156
I8
sg157
I95
sg158
(lp211
I1
asbaa(lp212
(ibasic
Hero
p213
(dp214
g6
I6
sg148
I17
sg149
I6
sg150
I55
sg151
I0
sg152
I15
sg153
I0
sg154
(I3
I3
tp215
sg156
I5
sg157
I90
sg158
g203
sba(ibasic
Base_Unit
p216
(dp217
g6
I1
sg148
I17
sg149
I4
sg150
I25
sg151
I0
sg152
I13
sg153
I0
sg154
(I3
I1
tp218
sg156
I7
sg157
I90
sg158
(lp219
I1
asba(ibasic
Base_Unit
p220
(dp221
g6
I2
sg148
I17
sg149
I3
sg150
I25
sg151
I0
sg152
I12
sg153
I0
sg154
(I3
I2
tp222
sg156
I6
sg157
I90
sg158
g207
sbaasS'id'
p223
(I0
I0
tp224
sS'temple'
p225
(lp226
sba(ibasic
Command
p227
(dp228
S'move'
p229
(I3
I0
tp230
sS'order'
p231
I1
sS'target'
p232
(I1
I1
tp233
sba(ibasic
Round_End_Info
p234
(dp235
S'over'
p236
I00
sS'effect'
p237
(I01
I00
tp238
sg8
(lp239
I0
aI0
asg198
(lp240
(lp241
(ibasic
Hero
p242
(dp243
g6
I6
sg148
I17
sg149
I6
sg150
I55
sg151
I0
sg152
I15
sg153
I0
sg154
(I3
I0
tp244
sg156
I5
sg157
I90
sg158
(lp245
I1
asba(ibasic
Base_Unit
p246
(dp247
g6
I2
sg148
I17
sg149
I3
sg150
I25
sg151
I0
sg152
I12
sg153
I0
sg154
(I1
I0
tp248
sg156
I6
sg157
I90
sg158
(lp249
I2
asba(ibasic
Base_Unit
p250
(dp251
g6
I3
sg148
I15
sg149
I2
sg150
I21
sg151
I0
sg152
I10
sg153
I0
sg154
(I0
I2
tp252
sg156
I8
sg157
I95
sg158
(lp253
I1
asbaa(lp254
(ibasic
Hero
p255
(dp256
g6
I6
sg148
I17
sg149
I6
sg150
I55
sg151
I0
sg152
I15
sg153
I0
sg154
(I3
I3
tp257
sg156
I5
sg157
I90
sg158
g245
sba(ibasic
Base_Unit
p258
(dp259
g6
I1
sg148
I17
sg149
I4
sg150
I21
sg151
I0
sg152
I13
sg153
I0
sg154
(I3
I1
tp260
sg156
I7
sg157
I90
sg158
(lp261
I1
asba(ibasic
Base_Unit
p262
(dp263
g6
I2
sg148
I17
sg149
I3
sg150
I25
sg151
I0
sg152
I12
sg153
I0
sg154
(I3
I2
tp264
sg156
I6
sg157
I90
sg158
g249
sbaasS'route'
p265
(lp266
(I0
I0
tp267
a(I1
I0
tp268
a(I2
I0
tp269
ag244
asS'change'
p270
(lp271
sbaa(lp272
(ibasic
Round_Begin_Info
p273
(dp274
g186
(lp275
(I3
I3
tp276
a(I4
I3
tp277
a(I2
I3
tp278
a(I3
I4
tp279
a(I5
I3
tp280
a(I4
I4
tp281
a(I4
I2
tp282
a(I1
I3
tp283
a(I2
I4
tp284
a(I2
I2
tp285
a(I3
I5
tp286
asg198
(lp287
(lp288
(ibasic
Hero
p289
(dp290
g6
I6
sg148
I17
sg149
I6
sg150
I55
sg151
I0
sg152
I15
sg153
I0
sg154
(I3
I0
tp291
sg156
I5
sg157
I90
sg158
(lp292
I1
asba(ibasic
Base_Unit
p293
(dp294
g6
I2
sg148
I17
sg149
I3
sg150
I25
sg151
I0
sg152
I12
sg153
I0
sg154
(I1
I0
tp295
sg156
I6
sg157
I90
sg158
(lp296
I2
asba(ibasic
Base_Unit
p297
(dp298
g6
I3
sg148
I15
sg149
I2
sg150
I21
sg151
I0
sg152
I10
sg153
I0
sg154
(I0
I2
tp299
sg156
I8
sg157
I95
sg158
(lp300
I1
asbaa(lp301
(ibasic
Hero
p302
(dp303
g6
I6
sg148
I17
sg149
I6
sg150
I55
sg151
I0
sg152
I15
sg153
I0
sg154
g276
sg156
I5
sg157
I90
sg158
g292
sba(ibasic
Base_Unit
p304
(dp305
g6
I1
sg148
I17
sg149
I4
sg150
I21
sg151
I0
sg152
I13
sg153
I0
sg154
(I3
I1
tp306
sg156
I7
sg157
I90
sg158
(lp307
I1
asba(ibasic
Base_Unit
p308
(dp309
g6
I2
sg148
I17
sg149
I3
sg150
I25
sg151
I0
sg152
I12
sg153
I0
sg154
(I3
I2
tp310
sg156
I6
sg157
I90
sg158
g296
sbaasg223
(I1
I0
tp311
sg225
(lp312
sba(ibasic
Command
p313
(dp314
g229
(I3
I3
tp315
sg231
I0
sg232
(I0
I0
tp316
sba(ibasic
Round_End_Info
p317
(dp318
g236
I00
sg237
(I-1
I-1
tp319
sg8
(lp320
I0
aI0
asg198
(lp321
(lp322
(ibasic
Hero
p323
(dp324
g6
I6
sg148
I17
sg149
I6
sg150
I55
sg151
I0
sg152
I15
sg153
I0
sg154
(I3
I0
tp325
sg156
I5
sg157
I90
sg158
(lp326
I1
asba(ibasic
Base_Unit
p327
(dp328
g6
I2
sg148
I17
sg149
I3
sg150
I25
sg151
I0
sg152
I12
sg153
I0
sg154
(I1
I0
tp329
sg156
I6
sg157
I90
sg158
(lp330
I2
asba(ibasic
Base_Unit
p331
(dp332
g6
I3
sg148
I15
sg149
I2
sg150
I21
sg151
I0
sg152
I10
sg153
I0
sg154
(I0
I2
tp333
sg156
I8
sg157
I95
sg158
(lp334
I1
asbaa(lp335
(ibasic
Hero
p336
(dp337
g6
I6
sg148
I17
sg149
I6
sg150
I55
sg151
I0
sg152
I15
sg153
I0
sg154
(I3
I3
tp338
sg156
I5
sg157
I90
sg158
g326
sba(ibasic
Base_Unit
p339
(dp340
g6
I1
sg148
I17
sg149
I4
sg150
I21
sg151
I0
sg152
I13
sg153
I0
sg154
(I3
I1
tp341
sg156
I7
sg157
I90
sg158
(lp342
I1
asba(ibasic
Base_Unit
p343
(dp344
g6
I2
sg148
I17
sg149
I3
sg150
I25
sg151
I0
sg152
I12
sg153
I0
sg154
(I3
I2
tp345
sg156
I6
sg157
I90
sg158
g330
sbaasg265
(lp346
g338
asg270
(lp347
sbaa(lp348
(ibasic
Round_Begin_Info
p349
(dp350
g186
(lp351
(I1
I0
tp352
a(I2
I0
tp353
a(I0
I0
tp354
a(I1
I1
tp355
a(I2
I1
tp356
a(I0
I1
tp357
a(I1
I2
tp358
a(I4
I0
tp359
a(I2
I2
tp360
a(I5
I0
tp361
a(I4
I1
tp362
a(I1
I3
tp363
a(I6
I0
tp364
a(I5
I1
tp365
a(I4
I2
tp366
a(I2
I3
tp367
a(I0
I3
tp368
asg198
(lp369
(lp370
(ibasic
Hero
p371
(dp372
g6
I6
sg148
I17
sg149
I6
sg150
I55
sg151
I0
sg152
I15
sg153
I0
sg154
(I3
I0
tp373
sg156
I5
sg157
I90
sg158
(lp374
I1
asba(ibasic
Base_Unit
p375
(dp376
g6
I2
sg148
I17
sg149
I3
sg150
I25
sg151
I0
sg152
I12
sg153
I0
sg154
g352
sg156
I6
sg157
I90
sg158
(lp377
I2
asba(ibasic
Base_Unit
p378
(dp379
g6
I3
sg148
I15
sg149
I2
sg150
I21
sg151
I0
sg152
I10
sg153
I0
sg154
(I0
I2
tp380
sg156
I8
sg157
I95
sg158
(lp381
I1
asbaa(lp382
(ibasic
Hero
p383
(dp384
g6
I6
sg148
I17
sg149
I6
sg150
I55
sg151
I0
sg152
I15
sg153
I0
sg154
(I3
I3
tp385
sg156
I5
sg157
I90
sg158
g374
sba(ibasic
Base_Unit
p386
(dp387
g6
I1
sg148
I17
sg149
I4
sg150
I21
sg151
I0
sg152
I13
sg153
I0
sg154
(I3
I1
tp388
sg156
I7
sg157
I90
sg158
(lp389
I1
asba(ibasic
Base_Unit
p390
(dp391
g6
I2
sg148
I17
sg149
I3
sg150
I25
sg151
I0
sg152
I12
sg153
I0
sg154
(I3
I2
tp392
sg156
I6
sg157
I90
sg158
g377
sbaasg223
(I0
I1
tp393
sg225
(lp394
sba(ibasic
Command
p395
(dp396
g229
(I2
I0
tp397
sg231
I1
sg232
(I1
I1
tp398
sba(ibasic
Round_End_Info
p399
(dp400
g236
I00
sg237
(I01
I-1
tp401
sg8
(lp402
I0
aI0
asg198
(lp403
(lp404
(ibasic
Hero
p405
(dp406
g6
I6
sg148
I17
sg149
I6
sg150
I55
sg151
I0
sg152
I15
sg153
I0
sg154
(I3
I0
tp407
sg156
I5
sg157
I90
sg158
(lp408
I1
asba(ibasic
Base_Unit
p409
(dp410
g6
I2
sg148
I17
sg149
I3
sg150
I25
sg151
I0
sg152
I12
sg153
I0
sg154
(I2
I0
tp411
sg156
I6
sg157
I90
sg158
(lp412
I2
asba(ibasic
Base_Unit
p413
(dp414
g6
I3
sg148
I15
sg149
I2
sg150
I21
sg151
I0
sg152
I10
sg153
I0
sg154
(I0
I2
tp415
sg156
I8
sg157
I95
sg158
(lp416
I1
asbaa(lp417
(ibasic
Hero
p418
(dp419
g6
I6
sg148
I17
sg149
I6
sg150
I55
sg151
I0
sg152
I15
sg153
I0
sg154
(I3
I3
tp420
sg156
I5
sg157
I90
sg158
g408
sba(ibasic
Base_Unit
p421
(dp422
g6
I1
sg148
I17
sg149
I4
sg150
I17
sg151
I0
sg152
I13
sg153
I0
sg154
(I3
I1
tp423
sg156
I7
sg157
I90
sg158
(lp424
I1
asba(ibasic
Base_Unit
p425
(dp426
g6
I2
sg148
I17
sg149
I3
sg150
I25
sg151
I0
sg152
I12
sg153
I0
sg154
(I3
I2
tp427
sg156
I6
sg157
I90
sg158
g412
sbaasg265
(lp428
(I1
I0
tp429
ag411
asg270
(lp430
sbaa(lp431
(ibasic
Round_Begin_Info
p432
(dp433
g186
(lp434
(I3
I1
tp435
a(I4
I1
tp436
a(I2
I1
tp437
a(I5
I1
tp438
a(I4
I2
tp439
a(I4
I0
tp440
a(I1
I1
tp441
a(I2
I2
tp442
a(I6
I1
tp443
a(I5
I2
tp444
a(I5
I0
tp445
a(I0
I1
tp446
a(I1
I2
tp447
a(I1
I0
tp448
a(I7
I1
tp449
a(I6
I2
tp450
a(I6
I0
tp451
a(I4
I3
tp452
a(I0
I0
tp453
a(I2
I3
tp454
a(I7
I2
tp455
a(I7
I0
tp456
a(I5
I3
tp457
a(I1
I3
tp458
a(I3
I4
tp459
a(I6
I3
tp460
a(I4
I4
tp461
a(I2
I4
tp462
asg198
(lp463
(lp464
(ibasic
Hero
p465
(dp466
g6
I6
sg148
I17
sg149
I6
sg150
I55
sg151
I0
sg152
I15
sg153
I0
sg154
(I3
I0
tp467
sg156
I5
sg157
I90
sg158
(lp468
I1
asba(ibasic
Base_Unit
p469
(dp470
g6
I2
sg148
I17
sg149
I3
sg150
I25
sg151
I0
sg152
I12
sg153
I0
sg154
(I2
I0
tp471
sg156
I6
sg157
I90
sg158
(lp472
I2
asba(ibasic
Base_Unit
p473
(dp474
g6
I3
sg148
I15
sg149
I2
sg150
I21
sg151
I0
sg152
I10
sg153
I0
sg154
(I0
I2
tp475
sg156
I8
sg157
I95
sg158
(lp476
I1
asbaa(lp477
(ibasic
Hero
p478
(dp479
g6
I6
sg148
I17
sg149
I6
sg150
I55
sg151
I0
sg152
I15
sg153
I0
sg154
(I3
I3
tp480
sg156
I5
sg157
I90
sg158
g468
sba(ibasic
Base_Unit
p481
(dp482
g6
I1
sg148
I17
sg149
I4
sg150
I17
sg151
I0
sg152
I13
sg153
I0
sg154
g435
sg156
I7
sg157
I90
sg158
(lp483
I1
asba(ibasic
Base_Unit
p484
(dp485
g6
I2
sg148
I17
sg149
I3
sg150
I25
sg151
I0
sg152
I12
sg153
I0
sg154
(I3
I2
tp486
sg156
I6
sg157
I90
sg158
g472
sbaasg223
(I1
I1
tp487
sg225
(lp488
sba(ibasic
Command
p489
(dp490
g229
(I3
I1
tp491
sg231
I1
sg232
(I0
I0
tp492
sba(ibasic
Round_End_Info
p493
(dp494
g236
I00
sg237
(I01
I01
tp495
sg8
(lp496
I0
aI0
asg198
(lp497
(lp498
(ibasic
Hero
p499
(dp500
g6
I6
sg148
I17
sg149
I6
sg150
I53
sg151
I0
sg152
I15
sg153
I0
sg154
(I3
I0
tp501
sg156
I5
sg157
I90
sg158
(lp502
I1
asba(ibasic
Base_Unit
p503
(dp504
g6
I2
sg148
I17
sg149
I3
sg150
I25
sg151
I0
sg152
I12
sg153
I0
sg154
(I2
I0
tp505
sg156
I6
sg157
I90
sg158
(lp506
I2
asba(ibasic
Base_Unit
p507
(dp508
g6
I3
sg148
I15
sg149
I2
sg150
I21
sg151
I0
sg152
I10
sg153
I0
sg154
(I0
I2
tp509
sg156
I8
sg157
I95
sg158
(lp510
I1
asbaa(lp511
(ibasic
Hero
p512
(dp513
g6
I6
sg148
I17
sg149
I6
sg150
I55
sg151
I0
sg152
I15
sg153
I0
sg154
(I3
I3
tp514
sg156
I5
sg157
I90
sg158
g502
sba(ibasic
Base_Unit
p515
(dp516
g6
I1
sg148
I17
sg149
I4
sg150
I13
sg151
I0
sg152
I13
sg153
I0
sg154
(I3
I1
tp517
sg156
I7
sg157
I90
sg158
(lp518
I1
asba(ibasic
Base_Unit
p519
(dp520
g6
I2
sg148
I17
sg149
I3
sg150
I25
sg151
I0
sg152
I12
sg153
I0
sg154
(I3
I2
tp521
sg156
I6
sg157
I90
sg158
g506
sbaasg265
(lp522
g517
asg270
(lp523
sbaa(lp524
(ibasic
Round_Begin_Info
p525
(dp526
g186
(lp527
(I0
I2
tp528
a(I1
I2
tp529
a(I0
I3
tp530
a(I0
I1
tp531
a(I1
I1
tp532
a(I0
I0
tp533
a(I2
I2
tp534
a(I1
I3
tp535
a(I0
I4
tp536
a(I2
I1
tp537
a(I1
I0
tp538
a(I3
I1
tp539
a(I3
I2
tp540
a(I2
I3
tp541
a(I1
I4
tp542
a(I0
I5
tp543
a(I4
I1
tp544
a(I5
I1
tp545
a(I4
I2
tp546
a(I4
I0
tp547
asg198
(lp548
(lp549
(ibasic
Hero
p550
(dp551
g6
I6
sg148
I17
sg149
I6
sg150
I53
sg151
I0
sg152
I15
sg153
I0
sg154
(I3
I0
tp552
sg156
I5
sg157
I90
sg158
(lp553
I1
asba(ibasic
Base_Unit
p554
(dp555
g6
I2
sg148
I17
sg149
I3
sg150
I25
sg151
I0
sg152
I12
sg153
I0
sg154
(I2
I0
tp556
sg156
I6
sg157
I90
sg158
(lp557
I2
asba(ibasic
Base_Unit
p558
(dp559
g6
I3
sg148
I15
sg149
I2
sg150
I21
sg151
I0
sg152
I10
sg153
I0
sg154
g528
sg156
I8
sg157
I95
sg158
(lp560
I1
asbaa(lp561
(ibasic
Hero
p562
(dp563
g6
I6
sg148
I17
sg149
I6
sg150
I55
sg151
I0
sg152
I15
sg153
I0
sg154
(I3
I3
tp564
sg156
I5
sg157
I90
sg158
g553
sba(ibasic
Base_Unit
p565
(dp566
g6
I1
sg148
I17
sg149
I4
sg150
I13
sg151
I0
sg152
I13
sg153
I0
sg154
(I3
I1
tp567
sg156
I7
sg157
I90
sg158
(lp568
I1
asba(ibasic
Base_Unit
p569
(dp570
g6
I2
sg148
I17
sg149
I3
sg150
I25
sg151
I0
sg152
I12
sg153
I0
sg154
(I3
I2
tp571
sg156
I6
sg157
I90
sg158
g557
sbaasg223
(I0
I2
tp572
sg225
(lp573
sba(ibasic
Command
p574
(dp575
g229
(I2
I2
tp576
sg231
I1
sg232
(I1
I2
tp577
sba(ibasic
Round_End_Info
p578
(dp579
g236
I00
sg237
(I01
I-1
tp580
sg8
(lp581
I0
aI0
asg198
(lp582
(lp583
(ibasic
Hero
p584
(dp585
g6
I6
sg148
I17
sg149
I6
sg150
I53
sg151
I0
sg152
I15
sg153
I0
sg154
(I3
I0
tp586
sg156
I5
sg157
I90
sg158
(lp587
I1
asba(ibasic
Base_Unit
p588
(dp589
g6
I2
sg148
I17
sg149
I3
sg150
I25
sg151
I0
sg152
I12
sg153
I0
sg154
(I2
I0
tp590
sg156
I6
sg157
I90
sg158
(lp591
I2
asba(ibasic
Base_Unit
p592
(dp593
g6
I3
sg148
I15
sg149
I2
sg150
I21
sg151
I0
sg152
I10
sg153
I0
sg154
(I2
I2
tp594
sg156
I8
sg157
I95
sg158
(lp595
I1
asbaa(lp596
(ibasic
Hero
p597
(dp598
g6
I6
sg148
I17
sg149
I6
sg150
I55
sg151
I0
sg152
I15
sg153
I0
sg154
(I3
I3
tp599
sg156
I5
sg157
I90
sg158
g587
sba(ibasic
Base_Unit
p600
(dp601
g6
I1
sg148
I17
sg149
I4
sg150
I13
sg151
I0
sg152
I13
sg153
I0
sg154
(I3
I1
tp602
sg156
I7
sg157
I90
sg158
(lp603
I1
asba(ibasic
Base_Unit
p604
(dp605
g6
I2
sg148
I17
sg149
I3
sg150
I22
sg151
I0
sg152
I12
sg153
I0
sg154
(I3
I2
tp606
sg156
I6
sg157
I90
sg158
g591
sbaasg265
(lp607
(I0
I2
tp608
a(I1
I2
tp609
ag594
asg270
(lp610
sbaa(lp611
(ibasic
Round_Begin_Info
p612
(dp613
g186
(lp614
(I3
I2
tp615
a(I4
I2
tp616
a(I4
I1
tp617
a(I2
I1
tp618
a(I5
I2
tp619
a(I4
I3
tp620
a(I2
I3
tp621
a(I3
I4
tp622
a(I5
I1
tp623
a(I4
I0
tp624
a(I1
I1
tp625
a(I6
I1
tp626
a(I5
I0
tp627
a(I0
I1
tp628
a(I1
I2
tp629
a(I1
I0
tp630
asg198
(lp631
(lp632
(ibasic
Hero
p633
(dp634
g6
I6
sg148
I17
sg149
I6
sg150
I53
sg151
I0
sg152
I15
sg153
I0
sg154
(I3
I0
tp635
sg156
I5
sg157
I90
sg158
(lp636
I1
asba(ibasic
Base_Unit
p637
(dp638
g6
I2
sg148
I17
sg149
I3
sg150
I25
sg151
I0
sg152
I12
sg153
I0
sg154
(I2
I0
tp639
sg156
I6
sg157
I90
sg158
(lp640
I2
asba(ibasic
Base_Unit
p641
(dp642
g6
I3
sg148
I15
sg149
I2
sg150
I21
sg151
I0
sg152
I10
sg153
I0
sg154
(I2
I2
tp643
sg156
I8
sg157
I95
sg158
(lp644
I1
asbaa(lp645
(ibasic
Hero
p646
(dp647
g6
I6
sg148
I17
sg149
I6
sg150
I55
sg151
I0
sg152
I15
sg153
I0
sg154
(I3
I3
tp648
sg156
I5
sg157
I90
sg158
g636
sba(ibasic
Base_Unit
p649
(dp650
g6
I1
sg148
I17
sg149
I4
sg150
I13
sg151
I0
sg152
I13
sg153
I0
sg154
(I3
I1
tp651
sg156
I7
sg157
I90
sg158
(lp652
I1
asba(ibasic
Base_Unit
p653
(dp654
g6
I2
sg148
I17
sg149
I3
sg150
I22
sg151
I0
sg152
I12
sg153
I0
sg154
g615
sg156
I6
sg157
I90
sg158
g640
sbaasg223
(I1
I2
tp655
sg225
(lp656
sba(ibasic
Command
p657
(dp658
g229
(I3
I2
tp659
sg231
I1
sg232
(I0
I0
tp660
sba(ibasic
Round_End_Info
p661
(dp662
g236
I01
sg237
(I01
I-1
tp663
sg8
(lp664
I0
aI0
asg198
(lp665
(lp666
(ibasic
Hero
p667
(dp668
g6
I6
sg148
I17
sg149
I6
sg150
I51
sg151
I0
sg152
I15
sg153
I0
sg154
(I3
I0
tp669
sg156
I5
sg157
I90
sg158
(lp670
I1
asba(ibasic
Base_Unit
p671
(dp672
g6
I2
sg148
I17
sg149
I3
sg150
I25
sg151
I0
sg152
I12
sg153
I0
sg154
(I2
I0
tp673
sg156
I6
sg157
I90
sg158
(lp674
I2
asba(ibasic
Base_Unit
p675
(dp676
g6
I3
sg148
I15
sg149
I2
sg150
I21
sg151
I0
sg152
I10
sg153
I0
sg154
(I2
I2
tp677
sg156
I8
sg157
I95
sg158
(lp678
I1
asbaa(lp679
(ibasic
Hero
p680
(dp681
g6
I6
sg148
I17
sg149
I6
sg150
I55
sg151
I0
sg152
I15
sg153
I0
sg154
(I3
I3
tp682
sg156
I5
sg157
I90
sg158
g670
sba(ibasic
Base_Unit
p683
(dp684
g6
I1
sg148
I17
sg149
I4
sg150
I13
sg151
I0
sg152
I13
sg153
I0
sg154
(I3
I1
tp685
sg156
I7
sg157
I90
sg158
(lp686
I1
asba(ibasic
Base_Unit
p687
(dp688
g6
I2
sg148
I17
sg149
I3
sg150
I22
sg151
I0
sg152
I12
sg153
I0
sg154
(I3
I2
tp689
sg156
I6
sg157
I90
sg158
g674
sbaasg265
(lp690
g689
asg270
(lp691
sbaa.