(lp1
((lp2
(lp3
(ibasic
Map_Basic
p4
(dp5
S'kind'
p6
I0
sS'move_consumption'
p7
I1
sS'score'
p8
I0
sba(ibasic
Map_Basic
p9
(dp10
g6
I0
sg7
I1
sg8
I0
sba(ibasic
Map_Basic
p11
(dp12
g6
I1
sg7
I2
sg8
I0
sba(ibasic
Map_Basic
p13
(dp14
g6
I1
sg7
I2
sg8
I0
sba(ibasic
Map_Basic
p15
(dp16
g6
I1
sg7
I2
sg8
I0
sba(ibasic
Map_Basic
p17
(dp18
g6
I1
sg7
I2
sg8
I0
sba(ibasic
Map_Basic
p19
(dp20
g6
I1
sg7
I2
sg8
I0
sba(ibasic
Map_Basic
p21
(dp22
g6
I0
sg7
I1
sg8
I0
sbaa(lp23
(ibasic
Map_Mirror
p24
(dp25
g6
I8
sg7
I1
sg8
I0
sS'out'
p26
(I3
I0
tp27
sba(ibasic
Map_Basic
p28
(dp29
g6
I0
sg7
I1
sg8
I0
sba(ibasic
Map_Basic
p30
(dp31
g6
I1
sg7
I2
sg8
I0
sba(ibasic
Map_Basic
p32
(dp33
g6
I1
sg7
I2
sg8
I0
sba(ibasic
Map_Basic
p34
(dp35
g6
I1
sg7
I2
sg8
I0
sba(ibasic
Map_Basic
p36
(dp37
g6
I1
sg7
I2
sg8
I0
sba(ibasic
Map_Basic
p38
(dp39
g6
I1
sg7
I2
sg8
I0
sba(ibasic
Map_Basic
p40
(dp41
g6
I0
sg7
I1
sg8
I0
sbaa(lp42
(ibasic
Map_Basic
p43
(dp44
g6
I0
sg7
I1
sg8
I0
sba(ibasic
Map_Basic
p45
(dp46
g6
I0
sg7
I1
sg8
I0
sba(ibasic
Map_Basic
p47
(dp48
g6
I1
sg7
I2
sg8
I0
sba(ibasic
Map_Basic
p49
(dp50
g6
I1
sg7
I2
sg8
I0
sba(ibasic
Map_Basic
p51
(dp52
g6
I1
sg7
I2
sg8
I0
sba(ibasic
Map_Basic
p53
(dp54
g6
I1
sg7
I2
sg8
I0
sba(ibasic
Map_Basic
p55
(dp56
g6
I1
sg7
I2
sg8
I0
sba(ibasic
Map_Basic
p57
(dp58
g6
I0
sg7
I1
sg8
I0
sbaa(lp59
(ibasic
Map_Basic
p60
(dp61
g6
I0
sg7
I1
sg8
I0
sba(ibasic
Map_Basic
p62
(dp63
g6
I0
sg7
I1
sg8
I0
sba(ibasic
Map_Basic
p64
(dp65
g6
I1
sg7
I2
sg8
I0
sba(ibasic
Map_Basic
p66
(dp67
g6
I1
sg7
I2
sg8
I0
sba(ibasic
Map_Basic
p68
(dp69
g6
I1
sg7
I2
sg8
I0
sba(ibasic
Map_Basic
p70
(dp71
g6
I1
sg7
I2
sg8
I0
sba(ibasic
Map_Basic
p72
(dp73
g6
I1
sg7
I2
sg8
I0
sba(ibasic
Map_Basic
p74
(dp75
g6
I0
sg7
I1
sg8
I0
sbaa(lp76
(ibasic
Map_Basic
p77
(dp78
g6
I0
sg7
I1
sg8
I0
sba(ibasic
Map_Basic
p79
(dp80
g6
I0
sg7
I1
sg8
I0
sba(ibasic
Map_Basic
p81
(dp82
g6
I1
sg7
I2
sg8
I0
sba(ibasic
Map_Basic
p83
(dp84
g6
I1
sg7
I2
sg8
I0
sba(ibasic
Map_Basic
p85
(dp86
g6
I1
sg7
I2
sg8
I0
sba(ibasic
Map_Basic
p87
(dp88
g6
I1
sg7
I2
sg8
I0
sba(ibasic
Map_Basic
p89
(dp90
g6
I1
sg7
I2
sg8
I0
sba(ibasic
Map_Basic
p91
(dp92
g6
I0
sg7
I1
sg8
I0
sbaa(lp93
(ibasic
Map_Basic
p94
(dp95
g6
I0
sg7
I1
sg8
I0
sba(ibasic
Map_Basic
p96
(dp97
g6
I0
sg7
I1
sg8
I0
sba(ibasic
Map_Basic
p98
(dp99
g6
I1
sg7
I2
sg8
I0
sba(ibasic
Map_Basic
p100
(dp101
g6
I1
sg7
I2
sg8
I0
sba(ibasic
Map_Basic
p102
(dp103
g6
I1
sg7
I2
sg8
I0
sba(ibasic
Map_Basic
p104
(dp105
g6
I1
sg7
I2
sg8
I0
sba(ibasic
Map_Basic
p106
(dp107
g6
I1
sg7
I2
sg8
I0
sba(ibasic
Map_Basic
p108
(dp109
g6
I0
sg7
I1
sg8
I0
sbaa(lp110
(ibasic
Map_Basic
p111
(dp112
g6
I0
sg7
I1
sg8
I0
sba(ibasic
Map_Basic
p113
(dp114
g6
I0
sg7
I1
sg8
I0
sba(ibasic
Map_Basic
p115
(dp116
g6
I1
sg7
I2
sg8
I0
sba(ibasic
Map_Basic
p117
(dp118
g6
I1
sg7
I2
sg8
I0
sba(ibasic
Map_Basic
p119
(dp120
g6
I1
sg7
I2
sg8
I0
sba(ibasic
Map_Basic
p121
(dp122
g6
I1
sg7
I2
sg8
I0
sba(ibasic
Map_Basic
p123
(dp124
g6
I1
sg7
I2
sg8
I0
sba(ibasic
Map_Basic
p125
(dp126
g6
I0
sg7
I1
sg8
I0
sbaa(lp127
(ibasic
Map_Basic
p128
(dp129
g6
I0
sg7
I1
sg8
I0
sba(ibasic
Map_Basic
p130
(dp131
g6
I0
sg7
I1
sg8
I0
sba(ibasic
Map_Basic
p132
(dp133
g6
I1
sg7
I2
sg8
I0
sba(ibasic
Map_Basic
p134
(dp135
g6
I1
sg7
I2
sg8
I0
sba(ibasic
Map_Basic
p136
(dp137
g6
I1
sg7
I2
sg8
I0
sba(ibasic
Map_Basic
p138
(dp139
g6
I1
sg7
I2
sg8
I0
sba(ibasic
Map_Basic
p140
(dp141
g6
I1
sg7
I2
sg8
I0
sba(ibasic
Map_Basic
p142
(dp143
g6
I0
sg7
I1
sg8
I0
sbaa(lp144
(lp145
(ibasic
Base_Unit
p146
(dp147
g6
I6
sS'strength'
p148
I10
sS'move_speed'
p149
I0
sS'life'
p150
I21
sS'up'
p151
I0
sS'defence'
p152
I12
sS'time'
p153
I0
sS'position'
p154
(I0
I0
tp155
sS'move_range'
p156
I6
sS'speed'
p157
I90
sS'attack_range'
p158
(lp159
sba(ibasic
Base_Unit
p160
(dp161
g6
I2
sg148
I17
sg149
I3
sg150
I25
sg151
I0
sg152
I12
sg153
I0
sg154
(I1
I0
tp162
sg156
I6
sg157
I90
sg158
(lp163
I2
asba(ibasic
Base_Unit
p164
(dp165
g6
I3
sg148
I15
sg149
I2
sg150
I21
sg151
I0
sg152
I10
sg153
I0
sg154
(I0
I2
tp166
sg156
I8
sg157
I95
sg158
(lp167
I1
asbaa(lp168
(ibasic
Base_Unit
p169
(dp170
g6
I7
sg148
I15
sg149
I2
sg150
I21
sg151
I0
sg152
I10
sg153
I0
sg154
(I3
I3
tp171
sg156
I8
sg157
I95
sg158
g167
sba(ibasic
Base_Unit
p172
(dp173
g6
I2
sg148
I17
sg149
I3
sg150
I25
sg151
I0
sg152
I12
sg153
I0
sg154
(I3
I2
tp174
sg156
I6
sg157
I90
sg158
g163
sba(ibasic
Base_Unit
p175
(dp176
g6
I1
sg148
I17
sg149
I4
sg150
I25
sg151
I0
sg152
I13
sg153
I0
sg154
(I3
I1
tp177
sg156
I7
sg157
I90
sg158
(lp178
I1
asbaa(lp179
S'Sample'
p180
aS'Player'
p181
atp182
a(lp183
(ibasic
Round_Begin_Info
p184
(dp185
S'range'
p186
(lp187
(I0
I0
tp188
a(I0
I1
tp189
a(I2
I0
tp190
a(I1
I1
tp191
a(I3
I0
tp192
a(I2
I1
tp193
a(I1
I2
tp194
a(I4
I0
tp195
a(I2
I2
tp196
a(I0
I3
tp197
asS'base'
p198
(lp199
(lp200
(ibasic
Hero
p201
(dp202
g6
I6
sg148
I17
sg149
I6
sg150
I55
sg151
I0
sg152
I15
sg153
I0
sg154
g188
sg156
I5
sg157
I90
sg158
(lp203
I1
asba(ibasic
Base_Unit
p204
(dp205
g6
I2
sg148
I17
sg149
I3
sg150
I25
sg151
I0
sg152
I12
sg153
I0
sg154
(I1
I0
tp206
sg156
I6
sg157
I90
sg158
(lp207
I2
asba(ibasic
Base_Unit
p208
(dp209
g6
I3
sg148
I15
sg149
I2
sg150
I21
sg151
I0
sg152
I10
sg153
I0
sg154
(I0
I2
tp210
sg156
I8
sg157
I95
sg158
(lp211
I1
asbaa(lp212
(ibasic
Hero
p213
(dp214
g6
I7
sg148
I20
sg149
I6
sg150
I40
sg151
I0
sg152
I13
sg153
I0
sg154
(I3
I3
tp215
sg156
I6
sg157
I100
sg158
(lp216
I1
asba(ibasic
Base_Unit
p217
(dp218
g6
I1
sg148
I17
sg149
I4
sg150
I25
sg151
I0
sg152
I13
sg153
I0
sg154
(I3
I1
tp219
sg156
I7
sg157
I90
sg158
(lp220
I1
asba(ibasic
Base_Unit
p221
(dp222
g6
I2
sg148
I17
sg149
I3
sg150
I25
sg151
I0
sg152
I12
sg153
I0
sg154
(I3
I2
tp223
sg156
I6
sg157
I90
sg158
g207
sbaasS'id'
p224
(I0
I0
tp225
sS'temple'
p226
(lp227
sba(ibasic
Command
p228
(dp229
S'move'
p230
(I3
I0
tp231
sS'order'
p232
I1
sS'target'
p233
(I1
I1
tp234
sba(ibasic
Round_End_Info
p235
(dp236
S'over'
p237
I00
sS'effect'
p238
(I01
I01
tp239
sg8
(lp240
I0
aI0
asg198
(lp241
(lp242
(ibasic
Hero
p243
(dp244
g6
I6
sg148
I17
sg149
I6
sg150
I53
sg151
I0
sg152
I15
sg153
I0
sg154
(I3
I0
tp245
sg156
I5
sg157
I90
sg158
(lp246
I1
asba(ibasic
Base_Unit
p247
(dp248
g6
I2
sg148
I17
sg149
I3
sg150
I25
sg151
I0
sg152
I12
sg153
I0
sg154
(I1
I0
tp249
sg156
I6
sg157
I90
sg158
(lp250
I2
asba(ibasic
Base_Unit
p251
(dp252
g6
I3
sg148
I15
sg149
I2
sg150
I21
sg151
I0
sg152
I10
sg153
I0
sg154
(I0
I2
tp253
sg156
I8
sg157
I95
sg158
(lp254
I1
asbaa(lp255
(ibasic
Hero
p256
(dp257
g6
I7
sg148
I20
sg149
I6
sg150
I40
sg151
I0
sg152
I13
sg153
I0
sg154
(I3
I3
tp258
sg156
I6
sg157
I100
sg158
(lp259
I1
asba(ibasic
Base_Unit
p260
(dp261
g6
I1
sg148
I17
sg149
I4
sg150
I21
sg151
I0
sg152
I13
sg153
I0
sg154
(I3
I1
tp262
sg156
I7
sg157
I90
sg158
(lp263
I1
asba(ibasic
Base_Unit
p264
(dp265
g6
I2
sg148
I17
sg149
I3
sg150
I25
sg151
I0
sg152
I12
sg153
I0
sg154
(I3
I2
tp266
sg156
I6
sg157
I90
sg158
g250
sbaasS'route'
p267
(lp268
(I0
I0
tp269
a(I1
I0
tp270
a(I2
I0
tp271
ag245
asS'change'
p272
(lp273
sbaa(lp274
(ibasic
Round_Begin_Info
p275
(dp276
g186
(lp277
(I3
I3
tp278
a(I4
I3
tp279
a(I2
I3
tp280
a(I3
I4
tp281
a(I5
I3
tp282
a(I4
I4
tp283
a(I4
I2
tp284
a(I1
I3
tp285
a(I2
I4
tp286
a(I2
I2
tp287
a(I3
I5
tp288
a(I4
I1
tp289
a(I2
I1
tp290
asg198
(lp291
(lp292
(ibasic
Hero
p293
(dp294
g6
I6
sg148
I17
sg149
I6
sg150
I53
sg151
I0
sg152
I15
sg153
I0
sg154
(I3
I0
tp295
sg156
I5
sg157
I90
sg158
(lp296
I1
asba(ibasic
Base_Unit
p297
(dp298
g6
I2
sg148
I17
sg149
I3
sg150
I25
sg151
I0
sg152
I12
sg153
I0
sg154
(I1
I0
tp299
sg156
I6
sg157
I90
sg158
(lp300
I2
asba(ibasic
Base_Unit
p301
(dp302
g6
I3
sg148
I15
sg149
I2
sg150
I21
sg151
I0
sg152
I10
sg153
I0
sg154
(I0
I2
tp303
sg156
I8
sg157
I95
sg158
(lp304
I1
asbaa(lp305
(ibasic
Hero
p306
(dp307
g6
I7
sg148
I20
sg149
I6
sg150
I40
sg151
I0
sg152
I13
sg153
I0
sg154
g278
sg156
I6
sg157
I100
sg158
(lp308
I1
asba(ibasic
Base_Unit
p309
(dp310
g6
I1
sg148
I17
sg149
I4
sg150
I21
sg151
I0
sg152
I13
sg153
I0
sg154
(I3
I1
tp311
sg156
I7
sg157
I90
sg158
(lp312
I1
asba(ibasic
Base_Unit
p313
(dp314
g6
I2
sg148
I17
sg149
I3
sg150
I25
sg151
I0
sg152
I12
sg153
I0
sg154
(I3
I2
tp315
sg156
I6
sg157
I90
sg158
g300
sbaasg224
(I1
I0
tp316
sg226
(lp317
sba(ibasic
Command
p318
(dp319
g230
(I4
I1
tp320
sg232
I0
sg233
Nsba(ibasic
Round_End_Info
p321
(dp322
g237
I00
sg238
(I-1
I-1
tp323
sg8
(lp324
I0
aI0
asg198
(lp325
(lp326
(ibasic
Hero
p327
(dp328
g6
I6
sg148
I17
sg149
I6
sg150
I53
sg151
I0
sg152
I15
sg153
I0
sg154
(I3
I0
tp329
sg156
I5
sg157
I90
sg158
(lp330
I1
asba(ibasic
Base_Unit
p331
(dp332
g6
I2
sg148
I17
sg149
I3
sg150
I25
sg151
I0
sg152
I12
sg153
I0
sg154
(I1
I0
tp333
sg156
I6
sg157
I90
sg158
(lp334
I2
asba(ibasic
Base_Unit
p335
(dp336
g6
I3
sg148
I15
sg149
I2
sg150
I21
sg151
I0
sg152
I10
sg153
I0
sg154
(I0
I2
tp337
sg156
I8
sg157
I95
sg158
(lp338
I1
asbaa(lp339
(ibasic
Hero
p340
(dp341
g6
I7
sg148
I20
sg149
I6
sg150
I40
sg151
I0
sg152
I12
sg153
I0
sg154
(I4
I1
tp342
sg156
I6
sg157
I100
sg158
(lp343
I1
asba(ibasic
Base_Unit
p344
(dp345
g6
I1
sg148
I17
sg149
I4
sg150
I21
sg151
I0
sg152
I13
sg153
I0
sg154
(I3
I1
tp346
sg156
I7
sg157
I90
sg158
(lp347
I1
asba(ibasic
Base_Unit
p348
(dp349
g6
I2
sg148
I17
sg149
I3
sg150
I25
sg151
I0
sg152
I12
sg153
I0
sg154
(I3
I2
tp350
sg156
I6
sg157
I90
sg158
g334
sbaasg267
(lp351
(I3
I3
tp352
a(I3
I2
tp353
a(I3
I1
tp354
ag342
asg272
(lp355
sbaa(lp356
(ibasic
Round_Begin_Info
p357
(dp358
g186
(lp359
(I1
I0
tp360
a(I2
I0
tp361
a(I0
I0
tp362
a(I1
I1
tp363
a(I2
I1
tp364
a(I0
I1
tp365
a(I1
I2
tp366
a(I4
I0
tp367
a(I2
I2
tp368
a(I5
I0
tp369
a(I1
I3
tp370
a(I6
I0
tp371
a(I5
I1
tp372
a(I2
I3
tp373
a(I0
I3
tp374
asg198
(lp375
(lp376
(ibasic
Hero
p377
(dp378
g6
I6
sg148
I17
sg149
I6
sg150
I53
sg151
I0
sg152
I15
sg153
I0
sg154
(I3
I0
tp379
sg156
I5
sg157
I90
sg158
(lp380
I1
asba(ibasic
Base_Unit
p381
(dp382
g6
I2
sg148
I17
sg149
I3
sg150
I25
sg151
I0
sg152
I12
sg153
I0
sg154
g360
sg156
I6
sg157
I90
sg158
(lp383
I2
asba(ibasic
Base_Unit
p384
(dp385
g6
I3
sg148
I15
sg149
I2
sg150
I21
sg151
I0
sg152
I10
sg153
I0
sg154
(I0
I2
tp386
sg156
I8
sg157
I95
sg158
(lp387
I1
asbaa(lp388
(ibasic
Hero
p389
(dp390
g6
I7
sg148
I20
sg149
I6
sg150
I40
sg151
I0
sg152
I12
sg153
I0
sg154
(I4
I1
tp391
sg156
I6
sg157
I100
sg158
(lp392
I1
asba(ibasic
Base_Unit
p393
(dp394
g6
I1
sg148
I17
sg149
I4
sg150
I21
sg151
I0
sg152
I13
sg153
I0
sg154
(I3
I1
tp395
sg156
I7
sg157
I90
sg158
(lp396
I1
asba(ibasic
Base_Unit
p397
(dp398
g6
I2
sg148
I17
sg149
I3
sg150
I25
sg151
I0
sg152
I12
sg153
I0
sg154
(I3
I2
tp399
sg156
I6
sg157
I90
sg158
g383
sbaasg224
(I0
I1
tp400
sg226
(lp401
sba(ibasic
Command
p402
(dp403
g230
(I2
I0
tp404
sg232
I1
sg233
(I1
I1
tp405
sba(ibasic
Round_End_Info
p406
(dp407
g237
I00
sg238
(I01
I-1
tp408
sg8
(lp409
I0
aI0
asg198
(lp410
(lp411
(ibasic
Hero
p412
(dp413
g6
I6
sg148
I17
sg149
I6
sg150
I53
sg151
I0
sg152
I15
sg153
I0
sg154
(I3
I0
tp414
sg156
I5
sg157
I90
sg158
(lp415
I1
asba(ibasic
Base_Unit
p416
(dp417
g6
I2
sg148
I17
sg149
I3
sg150
I25
sg151
I0
sg152
I12
sg153
I0
sg154
(I2
I0
tp418
sg156
I6
sg157
I90
sg158
(lp419
I2
asba(ibasic
Base_Unit
p420
(dp421
g6
I3
sg148
I15
sg149
I2
sg150
I21
sg151
I0
sg152
I10
sg153
I0
sg154
(I0
I2
tp422
sg156
I8
sg157
I95
sg158
(lp423
I1
asbaa(lp424
(ibasic
Hero
p425
(dp426
g6
I7
sg148
I20
sg149
I6
sg150
I40
sg151
I0
sg152
I12
sg153
I0
sg154
(I4
I1
tp427
sg156
I6
sg157
I100
sg158
(lp428
I1
asba(ibasic
Base_Unit
p429
(dp430
g6
I1
sg148
I17
sg149
I4
sg150
I17
sg151
I0
sg152
I13
sg153
I0
sg154
(I3
I1
tp431
sg156
I7
sg157
I90
sg158
(lp432
I1
asba(ibasic
Base_Unit
p433
(dp434
g6
I2
sg148
I17
sg149
I3
sg150
I25
sg151
I0
sg152
I12
sg153
I0
sg154
(I3
I2
tp435
sg156
I6
sg157
I90
sg158
g419
sbaasg267
(lp436
(I1
I0
tp437
ag418
asg272
(lp438
sbaa(lp439
(ibasic
Round_Begin_Info
p440
(dp441
g186
(lp442
(I3
I1
tp443
a(I2
I1
tp444
a(I5
I1
tp445
a(I4
I2
tp446
a(I4
I0
tp447
a(I1
I1
tp448
a(I2
I2
tp449
a(I6
I1
tp450
a(I5
I2
tp451
a(I5
I0
tp452
a(I0
I1
tp453
a(I1
I2
tp454
a(I1
I0
tp455
a(I3
I3
tp456
a(I7
I1
tp457
a(I6
I2
tp458
a(I6
I0
tp459
a(I4
I3
tp460
a(I0
I0
tp461
a(I2
I3
tp462
a(I7
I2
tp463
a(I7
I0
tp464
a(I5
I3
tp465
a(I1
I3
tp466
a(I3
I4
tp467
a(I6
I3
tp468
a(I4
I4
tp469
a(I2
I4
tp470
asg198
(lp471
(lp472
(ibasic
Hero
p473
(dp474
g6
I6
sg148
I17
sg149
I6
sg150
I53
sg151
I0
sg152
I15
sg153
I0
sg154
(I3
I0
tp475
sg156
I5
sg157
I90
sg158
(lp476
I1
asba(ibasic
Base_Unit
p477
(dp478
g6
I2
sg148
I17
sg149
I3
sg150
I25
sg151
I0
sg152
I12
sg153
I0
sg154
(I2
I0
tp479
sg156
I6
sg157
I90
sg158
(lp480
I2
asba(ibasic
Base_Unit
p481
(dp482
g6
I3
sg148
I15
sg149
I2
sg150
I21
sg151
I0
sg152
I10
sg153
I0
sg154
(I0
I2
tp483
sg156
I8
sg157
I95
sg158
(lp484
I1
asbaa(lp485
(ibasic
Hero
p486
(dp487
g6
I7
sg148
I20
sg149
I6
sg150
I40
sg151
I0
sg152
I12
sg153
I0
sg154
(I4
I1
tp488
sg156
I6
sg157
I100
sg158
(lp489
I1
asba(ibasic
Base_Unit
p490
(dp491
g6
I1
sg148
I17
sg149
I4
sg150
I17
sg151
I0
sg152
I13
sg153
I0
sg154
g443
sg156
I7
sg157
I90
sg158
(lp492
I1
asba(ibasic
Base_Unit
p493
(dp494
g6
I2
sg148
I17
sg149
I3
sg150
I25
sg151
I0
sg152
I12
sg153
I0
sg154
(I3
I2
tp495
sg156
I6
sg157
I90
sg158
g480
sbaasg224
(I1
I1
tp496
sg226
(lp497
sba(ibasic
Command
p498
(dp499
g230
(I2
I1
tp500
sg232
I1
sg233
(I0
I1
tp501
sba(ibasic
Round_End_Info
p502
(dp503
g237
I00
sg238
(I01
I-1
tp504
sg8
(lp505
I0
aI0
asg198
(lp506
(lp507
(ibasic
Hero
p508
(dp509
g6
I6
sg148
I17
sg149
I6
sg150
I53
sg151
I0
sg152
I15
sg153
I0
sg154
(I3
I0
tp510
sg156
I5
sg157
I90
sg158
(lp511
I1
asba(ibasic
Base_Unit
p512
(dp513
g6
I2
sg148
I17
sg149
I3
sg150
I20
sg151
I0
sg152
I12
sg153
I0
sg154
(I2
I0
tp514
sg156
I6
sg157
I90
sg158
(lp515
I2
asba(ibasic
Base_Unit
p516
(dp517
g6
I3
sg148
I15
sg149
I2
sg150
I21
sg151
I0
sg152
I10
sg153
I0
sg154
(I0
I2
tp518
sg156
I8
sg157
I95
sg158
(lp519
I1
asbaa(lp520
(ibasic
Hero
p521
(dp522
g6
I7
sg148
I20
sg149
I6
sg150
I40
sg151
I0
sg152
I12
sg153
I0
sg154
(I4
I1
tp523
sg156
I6
sg157
I100
sg158
(lp524
I1
asba(ibasic
Base_Unit
p525
(dp526
g6
I1
sg148
I17
sg149
I4
sg150
I17
sg151
I0
sg152
I13
sg153
I0
sg154
(I2
I1
tp527
sg156
I7
sg157
I90
sg158
(lp528
I1
asba(ibasic
Base_Unit
p529
(dp530
g6
I2
sg148
I17
sg149
I3
sg150
I25
sg151
I0
sg152
I12
sg153
I0
sg154
(I3
I2
tp531
sg156
I6
sg157
I90
sg158
g515
sbaasg267
(lp532
(I3
I1
tp533
ag527
asg272
(lp534
sbaa(lp535
(ibasic
Round_Begin_Info
p536
(dp537
g186
(lp538
(I0
I2
tp539
a(I1
I2
tp540
a(I0
I3
tp541
a(I0
I1
tp542
a(I1
I1
tp543
a(I0
I0
tp544
a(I2
I2
tp545
a(I1
I3
tp546
a(I0
I4
tp547
a(I2
I1
tp548
a(I1
I0
tp549
a(I3
I1
tp550
a(I3
I2
tp551
a(I2
I3
tp552
a(I1
I4
tp553
a(I0
I5
tp554
a(I4
I1
tp555
a(I5
I1
tp556
a(I4
I2
tp557
a(I4
I0
tp558
asg198
(lp559
(lp560
(ibasic
Hero
p561
(dp562
g6
I6
sg148
I17
sg149
I6
sg150
I53
sg151
I0
sg152
I15
sg153
I0
sg154
(I3
I0
tp563
sg156
I5
sg157
I90
sg158
(lp564
I1
asba(ibasic
Base_Unit
p565
(dp566
g6
I2
sg148
I17
sg149
I3
sg150
I20
sg151
I0
sg152
I12
sg153
I0
sg154
(I2
I0
tp567
sg156
I6
sg157
I90
sg158
(lp568
I2
asba(ibasic
Base_Unit
p569
(dp570
g6
I3
sg148
I15
sg149
I2
sg150
I21
sg151
I0
sg152
I10
sg153
I0
sg154
g539
sg156
I8
sg157
I95
sg158
(lp571
I1
asbaa(lp572
(ibasic
Hero
p573
(dp574
g6
I7
sg148
I20
sg149
I6
sg150
I40
sg151
I0
sg152
I12
sg153
I0
sg154
(I4
I1
tp575
sg156
I6
sg157
I100
sg158
(lp576
I1
asba(ibasic
Base_Unit
p577
(dp578
g6
I1
sg148
I17
sg149
I4
sg150
I17
sg151
I0
sg152
I13
sg153
I0
sg154
(I2
I1
tp579
sg156
I7
sg157
I90
sg158
(lp580
I1
asba(ibasic
Base_Unit
p581
(dp582
g6
I2
sg148
I17
sg149
I3
sg150
I25
sg151
I0
sg152
I12
sg153
I0
sg154
(I3
I2
tp583
sg156
I6
sg157
I90
sg158
g568
sbaasg224
(I0
I2
tp584
sg226
(lp585
sba(ibasic
Command
p586
(dp587
g230
(I1
I1
tp588
sg232
I1
sg233
(I1
I1
tp589
sba(ibasic
Round_End_Info
p590
(dp591
g237
I00
sg238
(I01
I01
tp592
sg8
(lp593
I0
aI0
asg198
(lp594
(lp595
(ibasic
Hero
p596
(dp597
g6
I6
sg148
I17
sg149
I6
sg150
I53
sg151
I0
sg152
I15
sg153
I0
sg154
(I3
I0
tp598
sg156
I5
sg157
I90
sg158
(lp599
I1
asba(ibasic
Base_Unit
p600
(dp601
g6
I2
sg148
I17
sg149
I3
sg150
I20
sg151
I0
sg152
I12
sg153
I0
sg154
(I2
I0
tp602
sg156
I6
sg157
I90
sg158
(lp603
I2
asba(ibasic
Base_Unit
p604
(dp605
g6
I3
sg148
I15
sg149
I2
sg150
I13
sg151
I0
sg152
I9
sg153
I0
sg154
(I1
I1
tp606
sg156
I8
sg157
I95
sg158
(lp607
I1
asbaa(lp608
(ibasic
Hero
p609
(dp610
g6
I7
sg148
I20
sg149
I6
sg150
I40
sg151
I0
sg152
I12
sg153
I0
sg154
(I4
I1
tp611
sg156
I6
sg157
I100
sg158
(lp612
I1
asba(ibasic
Base_Unit
p613
(dp614
g6
I1
sg148
I17
sg149
I4
sg150
I15
sg151
I0
sg152
I13
sg153
I0
sg154
(I2
I1
tp615
sg156
I7
sg157
I90
sg158
(lp616
I1
asba(ibasic
Base_Unit
p617
(dp618
g6
I2
sg148
I17
sg149
I3
sg150
I25
sg151
I0
sg152
I12
sg153
I0
sg154
(I3
I2
tp619
sg156
I6
sg157
I90
sg158
g603
sbaasg267
(lp620
(I0
I2
tp621
a(I0
I1
tp622
ag606
asg272
(lp623
sbaa(lp624
(ibasic
Round_Begin_Info
p625
(dp626
g186
(lp627
(I3
I2
tp628
a(I4
I2
tp629
a(I2
I2
tp630
a(I3
I3
tp631
a(I3
I1
tp632
a(I5
I2
tp633
a(I4
I3
tp634
a(I1
I2
tp635
a(I2
I3
tp636
a(I3
I4
tp637
a(I5
I1
tp638
a(I4
I0
tp639
a(I6
I1
tp640
a(I5
I0
tp641
asg198
(lp642
(lp643
(ibasic
Hero
p644
(dp645
g6
I6
sg148
I17
sg149
I6
sg150
I53
sg151
I0
sg152
I15
sg153
I0
sg154
(I3
I0
tp646
sg156
I5
sg157
I90
sg158
(lp647
I1
asba(ibasic
Base_Unit
p648
(dp649
g6
I2
sg148
I17
sg149
I3
sg150
I20
sg151
I0
sg152
I12
sg153
I0
sg154
(I2
I0
tp650
sg156
I6
sg157
I90
sg158
(lp651
I2
asba(ibasic
Base_Unit
p652
(dp653
g6
I3
sg148
I15
sg149
I2
sg150
I13
sg151
I0
sg152
I9
sg153
I0
sg154
(I1
I1
tp654
sg156
I8
sg157
I95
sg158
(lp655
I1
asbaa(lp656
(ibasic
Hero
p657
(dp658
g6
I7
sg148
I20
sg149
I6
sg150
I40
sg151
I0
sg152
I12
sg153
I0
sg154
(I4
I1
tp659
sg156
I6
sg157
I100
sg158
(lp660
I1
asba(ibasic
Base_Unit
p661
(dp662
g6
I1
sg148
I17
sg149
I4
sg150
I15
sg151
I0
sg152
I13
sg153
I0
sg154
(I2
I1
tp663
sg156
I7
sg157
I90
sg158
(lp664
I1
asba(ibasic
Base_Unit
p665
(dp666
g6
I2
sg148
I17
sg149
I3
sg150
I25
sg151
I0
sg152
I12
sg153
I0
sg154
g628
sg156
I6
sg157
I90
sg158
g651
sbaasg224
(I1
I2
tp667
sg226
(lp668
sba(ibasic
Command
p669
(dp670
g230
(I5
I0
tp671
sg232
I1
sg233
(I0
I0
tp672
sba(ibasic
Round_End_Info
p673
(dp674
g237
I00
sg238
(I00
I-1
tp675
sg8
(lp676
I0
aI0
asg198
(lp677
(lp678
(ibasic
Hero
p679
(dp680
g6
I6
sg148
I17
sg149
I6
sg150
I53
sg151
I0
sg152
I15
sg153
I0
sg154
(I3
I0
tp681
sg156
I5
sg157
I90
sg158
(lp682
I1
asba(ibasic
Base_Unit
p683
(dp684
g6
I2
sg148
I17
sg149
I3
sg150
I20
sg151
I0
sg152
I12
sg153
I0
sg154
(I2
I0
tp685
sg156
I6
sg157
I90
sg158
(lp686
I2
asba(ibasic
Base_Unit
p687
(dp688
g6
I3
sg148
I15
sg149
I2
sg150
I13
sg151
I0
sg152
I9
sg153
I0
sg154
(I1
I1
tp689
sg156
I8
sg157
I95
sg158
(lp690
I1
asbaa(lp691
(ibasic
Hero
p692
(dp693
g6
I7
sg148
I20
sg149
I6
sg150
I40
sg151
I0
sg152
I12
sg153
I0
sg154
(I4
I1
tp694
sg156
I6
sg157
I100
sg158
(lp695
I1
asba(ibasic
Base_Unit
p696
(dp697
g6
I1
sg148
I17
sg149
I4
sg150
I15
sg151
I0
sg152
I13
sg153
I0
sg154
(I2
I1
tp698
sg156
I7
sg157
I90
sg158
(lp699
I1
asba(ibasic
Base_Unit
p700
(dp701
g6
I2
sg148
I17
sg149
I3
sg150
I25
sg151
I0
sg152
I11
sg153
I0
sg154
(I5
I0
tp702
sg156
I6
sg157
I90
sg158
g686
sbaasg267
(lp703
(I3
I2
tp704
a(I4
I0
tp705
ag702
asg272
(lp706
sbaa(lp707
(ibasic
Round_Begin_Info
p708
(dp709
g186
(lp710
(I3
I0
tp711
a(I4
I0
tp712
a(I3
I1
tp713
a(I1
I0
tp714
a(I3
I2
tp715
a(I0
I0
tp716
a(I0
I1
tp717
a(I1
I2
tp718
a(I4
I2
tp719
a(I2
I2
tp720
a(I3
I3
tp721
asg198
(lp722
(lp723
(ibasic
Hero
p724
(dp725
g6
I6
sg148
I17
sg149
I6
sg150
I53
sg151
I0
sg152
I15
sg153
I0
sg154
g711
sg156
I5
sg157
I90
sg158
(lp726
I1
asba(ibasic
Base_Unit
p727
(dp728
g6
I2
sg148
I17
sg149
I3
sg150
I20
sg151
I0
sg152
I12
sg153
I0
sg154
(I2
I0
tp729
sg156
I6
sg157
I90
sg158
(lp730
I2
asba(ibasic
Base_Unit
p731
(dp732
g6
I3
sg148
I15
sg149
I2
sg150
I13
sg151
I0
sg152
I9
sg153
I0
sg154
(I1
I1
tp733
sg156
I8
sg157
I95
sg158
(lp734
I1
asbaa(lp735
(ibasic
Hero
p736
(dp737
g6
I7
sg148
I20
sg149
I6
sg150
I40
sg151
I0
sg152
I12
sg153
I0
sg154
(I4
I1
tp738
sg156
I6
sg157
I100
sg158
(lp739
I1
asba(ibasic
Base_Unit
p740
(dp741
g6
I1
sg148
I17
sg149
I4
sg150
I15
sg151
I0
sg152
I13
sg153
I0
sg154
(I2
I1
tp742
sg156
I7
sg157
I90
sg158
(lp743
I1
asba(ibasic
Base_Unit
p744
(dp745
g6
I2
sg148
I17
sg149
I3
sg150
I25
sg151
I0
sg152
I11
sg153
I0
sg154
(I5
I0
tp746
sg156
I6
sg157
I90
sg158
g730
sbaasg224
(I0
I0
tp747
sg226
(lp748
sba(ibasic
Command
p749
(dp750
g230
(I4
I0
tp751
sg232
I1
sg233
(I1
I0
tp752
sba(ibasic
Round_End_Info
p753
(dp754
g237
I00
sg238
(I01
I01
tp755
sg8
(lp756
I0
aI0
asg198
(lp757
(lp758
(ibasic
Hero
p759
(dp760
g6
I6
sg148
I17
sg149
I6
sg150
I33
sg151
I0
sg152
I15
sg153
I0
sg154
(I4
I0
tp761
sg156
I5
sg157
I90
sg158
(lp762
I1
asba(ibasic
Base_Unit
p763
(dp764
g6
I2
sg148
I17
sg149
I3
sg150
I20
sg151
I0
sg152
I12
sg153
I0
sg154
(I2
I0
tp765
sg156
I6
sg157
I90
sg158
(lp766
I2
asba(ibasic
Base_Unit
p767
(dp768
g6
I3
sg148
I15
sg149
I2
sg150
I13
sg151
I0
sg152
I9
sg153
I0
sg154
(I1
I1
tp769
sg156
I8
sg157
I95
sg158
(lp770
I1
asbaa(lp771
(ibasic
Hero
p772
(dp773
g6
I7
sg148
I20
sg149
I6
sg150
I35
sg151
I0
sg152
I12
sg153
I0
sg154
(I4
I1
tp774
sg156
I6
sg157
I100
sg158
(lp775
I1
asba(ibasic
Base_Unit
p776
(dp777
g6
I1
sg148
I17
sg149
I4
sg150
I15
sg151
I0
sg152
I13
sg153
I0
sg154
(I2
I1
tp778
sg156
I7
sg157
I90
sg158
(lp779
I1
asba(ibasic
Base_Unit
p780
(dp781
g6
I2
sg148
I17
sg149
I3
sg150
I25
sg151
I0
sg152
I11
sg153
I0
sg154
(I5
I0
tp782
sg156
I6
sg157
I90
sg158
g766
sbaasg267
(lp783
(I3
I0
tp784
ag761
asg272
(lp785
sbaa(lp786
(ibasic
Round_Begin_Info
p787
(dp788
g186
(lp789
(I4
I1
tp790
a(I5
I1
tp791
a(I3
I1
tp792
a(I4
I2
tp793
a(I6
I1
tp794
a(I5
I2
tp795
a(I3
I2
tp796
a(I3
I0
tp797
a(I7
I1
tp798
a(I6
I2
tp799
a(I6
I0
tp800
a(I2
I2
tp801
a(I4
I3
tp802
a(I7
I2
tp803
a(I7
I0
tp804
a(I5
I3
tp805
a(I3
I3
tp806
a(I6
I3
tp807
a(I1
I2
tp808
a(I2
I3
tp809
a(I4
I4
tp810
asg198
(lp811
(lp812
(ibasic
Hero
p813
(dp814
g6
I6
sg148
I17
sg149
I6
sg150
I33
sg151
I0
sg152
I15
sg153
I0
sg154
(I4
I0
tp815
sg156
I5
sg157
I90
sg158
(lp816
I1
asba(ibasic
Base_Unit
p817
(dp818
g6
I2
sg148
I17
sg149
I3
sg150
I20
sg151
I0
sg152
I12
sg153
I0
sg154
(I2
I0
tp819
sg156
I6
sg157
I90
sg158
(lp820
I2
asba(ibasic
Base_Unit
p821
(dp822
g6
I3
sg148
I15
sg149
I2
sg150
I13
sg151
I0
sg152
I9
sg153
I0
sg154
(I1
I1
tp823
sg156
I8
sg157
I95
sg158
(lp824
I1
asbaa(lp825
(ibasic
Hero
p826
(dp827
g6
I7
sg148
I20
sg149
I6
sg150
I35
sg151
I0
sg152
I12
sg153
I0
sg154
g790
sg156
I6
sg157
I100
sg158
(lp828
I1
asba(ibasic
Base_Unit
p829
(dp830
g6
I1
sg148
I17
sg149
I4
sg150
I15
sg151
I0
sg152
I13
sg153
I0
sg154
(I2
I1
tp831
sg156
I7
sg157
I90
sg158
(lp832
I1
asba(ibasic
Base_Unit
p833
(dp834
g6
I2
sg148
I17
sg149
I3
sg150
I25
sg151
I0
sg152
I11
sg153
I0
sg154
(I5
I0
tp835
sg156
I6
sg157
I90
sg158
g820
sbaasg224
(I1
I0
tp836
sg226
(lp837
sba(ibasic
Command
p838
(dp839
g230
(I3
I0
tp840
sg232
I1
sg233
(I0
I0
tp841
sba(ibasic
Round_End_Info
p842
(dp843
g237
I00
sg238
(I01
I01
tp844
sg8
(lp845
I0
aI0
asg198
(lp846
(lp847
(ibasic
Hero
p848
(dp849
g6
I6
sg148
I17
sg149
I6
sg150
I13
sg151
I0
sg152
I15
sg153
I0
sg154
(I4
I0
tp850
sg156
I5
sg157
I90
sg158
(lp851
I1
asba(ibasic
Base_Unit
p852
(dp853
g6
I2
sg148
I17
sg149
I3
sg150
I20
sg151
I0
sg152
I12
sg153
I0
sg154
(I2
I0
tp854
sg156
I6
sg157
I90
sg158
(lp855
I2
asba(ibasic
Base_Unit
p856
(dp857
g6
I3
sg148
I15
sg149
I2
sg150
I13
sg151
I0
sg152
I9
sg153
I0
sg154
(I1
I1
tp858
sg156
I8
sg157
I95
sg158
(lp859
I1
asbaa(lp860
(ibasic
Hero
p861
(dp862
g6
I7
sg148
I20
sg149
I6
sg150
I30
sg151
I0
sg152
I12
sg153
I0
sg154
(I3
I0
tp863
sg156
I6
sg157
I100
sg158
(lp864
I1
asba(ibasic
Base_Unit
p865
(dp866
g6
I1
sg148
I17
sg149
I4
sg150
I15
sg151
I0
sg152
I13
sg153
I0
sg154
(I2
I1
tp867
sg156
I7
sg157
I90
sg158
(lp868
I1
asba(ibasic
Base_Unit
p869
(dp870
g6
I2
sg148
I17
sg149
I3
sg150
I25
sg151
I0
sg152
I11
sg153
I0
sg154
(I5
I0
tp871
sg156
I6
sg157
I90
sg158
g855
sbaasg267
(lp872
(I4
I1
tp873
a(I3
I1
tp874
ag863
asg272
(lp875
sbaa(lp876
(ibasic
Round_Begin_Info
p877
(dp878
g186
(lp879
(I2
I0
tp880
a(I1
I0
tp881
a(I0
I0
tp882
a(I0
I1
tp883
a(I1
I2
tp884
a(I0
I2
tp885
a(I2
I2
tp886
a(I1
I3
tp887
asg198
(lp888
(lp889
(ibasic
Hero
p890
(dp891
g6
I6
sg148
I17
sg149
I6
sg150
I13
sg151
I0
sg152
I15
sg153
I0
sg154
(I4
I0
tp892
sg156
I5
sg157
I90
sg158
(lp893
I1
asba(ibasic
Base_Unit
p894
(dp895
g6
I2
sg148
I17
sg149
I3
sg150
I20
sg151
I0
sg152
I12
sg153
I0
sg154
g880
sg156
I6
sg157
I90
sg158
(lp896
I2
asba(ibasic
Base_Unit
p897
(dp898
g6
I3
sg148
I15
sg149
I2
sg150
I13
sg151
I0
sg152
I9
sg153
I0
sg154
(I1
I1
tp899
sg156
I8
sg157
I95
sg158
(lp900
I1
asbaa(lp901
(ibasic
Hero
p902
(dp903
g6
I7
sg148
I20
sg149
I6
sg150
I30
sg151
I0
sg152
I12
sg153
I0
sg154
(I3
I0
tp904
sg156
I6
sg157
I100
sg158
(lp905
I1
asba(ibasic
Base_Unit
p906
(dp907
g6
I1
sg148
I17
sg149
I4
sg150
I15
sg151
I0
sg152
I13
sg153
I0
sg154
(I2
I1
tp908
sg156
I7
sg157
I90
sg158
(lp909
I1
asba(ibasic
Base_Unit
p910
(dp911
g6
I2
sg148
I17
sg149
I3
sg150
I25
sg151
I0
sg152
I11
sg153
I0
sg154
(I5
I0
tp912
sg156
I6
sg157
I90
sg158
g896
sbaasg224
(I0
I1
tp913
sg226
(lp914
sba(ibasic
Command
p915
(dp916
g230
(I1
I0
tp917
sg232
I1
sg233
(I1
I0
tp918
sba(ibasic
Round_End_Info
p919
(dp920
g237
I00
sg238
(I01
I-1
tp921
sg8
(lp922
I0
aI0
asg198
(lp923
(lp924
(ibasic
Hero
p925
(dp926
g6
I6
sg148
I17
sg149
I6
sg150
I13
sg151
I0
sg152
I15
sg153
I0
sg154
(I4
I0
tp927
sg156
I5
sg157
I90
sg158
(lp928
I1
asba(ibasic
Base_Unit
p929
(dp930
g6
I2
sg148
I17
sg149
I3
sg150
I20
sg151
I0
sg152
I12
sg153
I0
sg154
(I1
I0
tp931
sg156
I6
sg157
I90
sg158
(lp932
I2
asba(ibasic
Base_Unit
p933
(dp934
g6
I3
sg148
I15
sg149
I2
sg150
I13
sg151
I0
sg152
I9
sg153
I0
sg154
(I1
I1
tp935
sg156
I8
sg157
I95
sg158
(lp936
I1
asbaa(lp937
(ibasic
Hero
p938
(dp939
g6
I7
sg148
I20
sg149
I6
sg150
I25
sg151
I0
sg152
I12
sg153
I0
sg154
(I3
I0
tp940
sg156
I6
sg157
I100
sg158
(lp941
I1
asba(ibasic
Base_Unit
p942
(dp943
g6
I1
sg148
I17
sg149
I4
sg150
I15
sg151
I0
sg152
I13
sg153
I0
sg154
(I2
I1
tp944
sg156
I7
sg157
I90
sg158
(lp945
I1
asba(ibasic
Base_Unit
p946
(dp947
g6
I2
sg148
I17
sg149
I3
sg150
I25
sg151
I0
sg152
I11
sg153
I0
sg154
(I5
I0
tp948
sg156
I6
sg157
I90
sg158
g932
sbaasg267
(lp949
(I2
I0
tp950
ag931
asg272
(lp951
sbaa(lp952
(ibasic
Round_Begin_Info
p953
(dp954
g186
(lp955
(I2
I1
tp956
a(I3
I1
tp957
a(I2
I2
tp958
a(I2
I0
tp959
a(I4
I1
tp960
a(I3
I2
tp961
a(I5
I1
tp962
a(I4
I2
tp963
a(I1
I2
tp964
a(I2
I3
tp965
a(I6
I1
tp966
a(I5
I2
tp967
a(I3
I3
tp968
a(I7
I1
tp969
a(I6
I2
tp970
a(I6
I0
tp971
a(I4
I3
tp972
a(I0
I2
tp973
a(I1
I3
tp974
a(I2
I4
tp975
a(I7
I2
tp976
a(I7
I0
tp977
a(I5
I3
tp978
a(I3
I4
tp979
asg198
(lp980
(lp981
(ibasic
Hero
p982
(dp983
g6
I6
sg148
I17
sg149
I6
sg150
I13
sg151
I0
sg152
I15
sg153
I0
sg154
(I4
I0
tp984
sg156
I5
sg157
I90
sg158
(lp985
I1
asba(ibasic
Base_Unit
p986
(dp987
g6
I2
sg148
I17
sg149
I3
sg150
I20
sg151
I0
sg152
I12
sg153
I0
sg154
(I1
I0
tp988
sg156
I6
sg157
I90
sg158
(lp989
I2
asba(ibasic
Base_Unit
p990
(dp991
g6
I3
sg148
I15
sg149
I2
sg150
I13
sg151
I0
sg152
I9
sg153
I0
sg154
(I1
I1
tp992
sg156
I8
sg157
I95
sg158
(lp993
I1
asbaa(lp994
(ibasic
Hero
p995
(dp996
g6
I7
sg148
I20
sg149
I6
sg150
I25
sg151
I0
sg152
I12
sg153
I0
sg154
(I3
I0
tp997
sg156
I6
sg157
I100
sg158
(lp998
I1
asba(ibasic
Base_Unit
p999
(dp1000
g6
I1
sg148
I17
sg149
I4
sg150
I15
sg151
I0
sg152
I13
sg153
I0
sg154
g956
sg156
I7
sg157
I90
sg158
(lp1001
I1
asba(ibasic
Base_Unit
p1002
(dp1003
g6
I2
sg148
I17
sg149
I3
sg150
I25
sg151
I0
sg152
I11
sg153
I0
sg154
(I5
I0
tp1004
sg156
I6
sg157
I90
sg158
g989
sbaasg224
(I1
I1
tp1005
sg226
(lp1006
sba(ibasic
Command
p1007
(dp1008
g230
(I2
I0
tp1009
sg232
I1
sg233
(I0
I1
tp1010
sba(ibasic
Round_End_Info
p1011
(dp1012
g237
I00
sg238
(I01
I-1
tp1013
sg8
(lp1014
I0
aI0
asg198
(lp1015
(lp1016
(ibasic
Hero
p1017
(dp1018
g6
I6
sg148
I17
sg149
I6
sg150
I13
sg151
I0
sg152
I15
sg153
I0
sg154
(I4
I0
tp1019
sg156
I5
sg157
I90
sg158
(lp1020
I1
asba(ibasic
Base_Unit
p1021
(dp1022
g6
I2
sg148
I17
sg149
I3
sg150
I15
sg151
I0
sg152
I12
sg153
I0
sg154
(I1
I0
tp1023
sg156
I6
sg157
I90
sg158
(lp1024
I2
asba(ibasic
Base_Unit
p1025
(dp1026
g6
I3
sg148
I15
sg149
I2
sg150
I13
sg151
I0
sg152
I9
sg153
I0
sg154
(I1
I1
tp1027
sg156
I8
sg157
I95
sg158
(lp1028
I1
asbaa(lp1029
(ibasic
Hero
p1030
(dp1031
g6
I7
sg148
I20
sg149
I6
sg150
I25
sg151
I0
sg152
I12
sg153
I0
sg154
(I3
I0
tp1032
sg156
I6
sg157
I100
sg158
(lp1033
I1
asba(ibasic
Base_Unit
p1034
(dp1035
g6
I1
sg148
I17
sg149
I4
sg150
I15
sg151
I0
sg152
I13
sg153
I0
sg154
(I2
I0
tp1036
sg156
I7
sg157
I90
sg158
(lp1037
I1
asba(ibasic
Base_Unit
p1038
(dp1039
g6
I2
sg148
I17
sg149
I3
sg150
I25
sg151
I0
sg152
I11
sg153
I0
sg154
(I5
I0
tp1040
sg156
I6
sg157
I90
sg158
g1024
sbaasg267
(lp1041
(I2
I1
tp1042
ag1036
asg272
(lp1043
sbaa(lp1044
(ibasic
Round_Begin_Info
p1045
(dp1046
g186
(lp1047
(I1
I1
tp1048
a(I2
I1
tp1049
a(I0
I1
tp1050
a(I1
I2
tp1051
a(I3
I1
tp1052
a(I2
I2
tp1053
a(I2
I0
tp1054
a(I0
I2
tp1055
a(I0
I0
tp1056
a(I4
I1
tp1057
a(I3
I2
tp1058
a(I3
I0
tp1059
a(I1
I3
tp1060
a(I5
I1
tp1061
a(I4
I2
tp1062
a(I2
I3
tp1063
a(I0
I3
tp1064
a(I6
I1
tp1065
a(I5
I2
tp1066
a(I5
I0
tp1067
a(I3
I3
tp1068
a(I1
I4
tp1069
a(I7
I1
tp1070
a(I6
I2
tp1071
a(I6
I0
tp1072
a(I4
I3
tp1073
a(I2
I4
tp1074
a(I0
I4
tp1075
a(I7
I2
tp1076
a(I7
I0
tp1077
a(I5
I3
tp1078
a(I3
I4
tp1079
a(I1
I5
tp1080
asg198
(lp1081
(lp1082
(ibasic
Hero
p1083
(dp1084
g6
I6
sg148
I17
sg149
I6
sg150
I13
sg151
I0
sg152
I15
sg153
I0
sg154
(I4
I0
tp1085
sg156
I5
sg157
I90
sg158
(lp1086
I1
asba(ibasic
Base_Unit
p1087
(dp1088
g6
I2
sg148
I17
sg149
I3
sg150
I15
sg151
I0
sg152
I12
sg153
I0
sg154
(I1
I0
tp1089
sg156
I6
sg157
I90
sg158
(lp1090
I2
asba(ibasic
Base_Unit
p1091
(dp1092
g6
I3
sg148
I15
sg149
I2
sg150
I13
sg151
I0
sg152
I9
sg153
I0
sg154
g1048
sg156
I8
sg157
I95
sg158
(lp1093
I1
asbaa(lp1094
(ibasic
Hero
p1095
(dp1096
g6
I7
sg148
I20
sg149
I6
sg150
I25
sg151
I0
sg152
I12
sg153
I0
sg154
(I3
I0
tp1097
sg156
I6
sg157
I100
sg158
(lp1098
I1
asba(ibasic
Base_Unit
p1099
(dp1100
g6
I1
sg148
I17
sg149
I4
sg150
I15
sg151
I0
sg152
I13
sg153
I0
sg154
(I2
I0
tp1101
sg156
I7
sg157
I90
sg158
(lp1102
I1
asba(ibasic
Base_Unit
p1103
(dp1104
g6
I2
sg148
I17
sg149
I3
sg150
I25
sg151
I0
sg152
I11
sg153
I0
sg154
(I5
I0
tp1105
sg156
I6
sg157
I90
sg158
g1090
sbaasg224
(I0
I2
tp1106
sg226
(lp1107
sba(ibasic
Command
p1108
(dp1109
g230
(I2
I1
tp1110
sg232
I1
sg233
(I1
I1
tp1111
sba(ibasic
Round_End_Info
p1112
(dp1113
g237
I00
sg238
(I01
I01
tp1114
sg8
(lp1115
I0
aI0
asg198
(lp1116
(lp1117
(ibasic
Hero
p1118
(dp1119
g6
I6
sg148
I17
sg149
I6
sg150
I13
sg151
I0
sg152
I15
sg153
I0
sg154
(I4
I0
tp1120
sg156
I5
sg157
I90
sg158
(lp1121
I1
asba(ibasic
Base_Unit
p1122
(dp1123
g6
I2
sg148
I17
sg149
I3
sg150
I15
sg151
I0
sg152
I12
sg153
I0
sg154
(I1
I0
tp1124
sg156
I6
sg157
I90
sg158
(lp1125
I2
asba(ibasic
Base_Unit
p1126
(dp1127
g6
I3
sg148
I15
sg149
I2
sg150
I5
sg151
I0
sg152
I9
sg153
I0
sg154
(I2
I1
tp1128
sg156
I8
sg157
I95
sg158
(lp1129
I1
asbaa(lp1130
(ibasic
Hero
p1131
(dp1132
g6
I7
sg148
I20
sg149
I6
sg150
I25
sg151
I0
sg152
I12
sg153
I0
sg154
(I3
I0
tp1133
sg156
I6
sg157
I100
sg158
(lp1134
I1
asba(ibasic
Base_Unit
p1135
(dp1136
g6
I1
sg148
I17
sg149
I4
sg150
I13
sg151
I0
sg152
I13
sg153
I0
sg154
(I2
I0
tp1137
sg156
I7
sg157
I90
sg158
(lp1138
I1
asba(ibasic
Base_Unit
p1139
(dp1140
g6
I2
sg148
I17
sg149
I3
sg150
I25
sg151
I0
sg152
I11
sg153
I0
sg154
(I5
I0
tp1141
sg156
I6
sg157
I90
sg158
g1125
sbaasg267
(lp1142
(I1
I1
tp1143
ag1128
asg272
(lp1144
sbaa(lp1145
(ibasic
Round_Begin_Info
p1146
(dp1147
g186
(lp1148
(I5
I0
tp1149
a(I6
I0
tp1150
a(I5
I1
tp1151
a(I7
I0
tp1152
a(I6
I1
tp1153
a(I4
I1
tp1154
a(I5
I2
tp1155
a(I7
I1
tp1156
a(I6
I2
tp1157
a(I3
I1
tp1158
a(I4
I2
tp1159
a(I7
I2
tp1160
a(I3
I2
tp1161
a(I5
I3
tp1162
a(I6
I3
tp1163
a(I4
I3
tp1164
asg198
(lp1165
(lp1166
(ibasic
Hero
p1167
(dp1168
g6
I6
sg148
I17
sg149
I6
sg150
I13
sg151
I0
sg152
I15
sg153
I0
sg154
(I4
I0
tp1169
sg156
I5
sg157
I90
sg158
(lp1170
I1
asba(ibasic
Base_Unit
p1171
(dp1172
g6
I2
sg148
I17
sg149
I3
sg150
I15
sg151
I0
sg152
I12
sg153
I0
sg154
(I1
I0
tp1173
sg156
I6
sg157
I90
sg158
(lp1174
I2
asba(ibasic
Base_Unit
p1175
(dp1176
g6
I3
sg148
I15
sg149
I2
sg150
I5
sg151
I0
sg152
I9
sg153
I0
sg154
(I2
I1
tp1177
sg156
I8
sg157
I95
sg158
(lp1178
I1
asbaa(lp1179
(ibasic
Hero
p1180
(dp1181
g6
I7
sg148
I20
sg149
I6
sg150
I25
sg151
I0
sg152
I12
sg153
I0
sg154
(I3
I0
tp1182
sg156
I6
sg157
I100
sg158
(lp1183
I1
asba(ibasic
Base_Unit
p1184
(dp1185
g6
I1
sg148
I17
sg149
I4
sg150
I13
sg151
I0
sg152
I13
sg153
I0
sg154
(I2
I0
tp1186
sg156
I7
sg157
I90
sg158
(lp1187
I1
asba(ibasic
Base_Unit
p1188
(dp1189
g6
I2
sg148
I17
sg149
I3
sg150
I25
sg151
I0
sg152
I11
sg153
I0
sg154
g1149
sg156
I6
sg157
I90
sg158
g1174
sbaasg224
(I1
I2
tp1190
sg226
(lp1191
sba(ibasic
Command
p1192
(dp1193
g230
(I5
I1
tp1194
sg232
I1
sg233
(I0
I0
tp1195
sba(ibasic
Round_End_Info
p1196
(dp1197
g237
I00
sg238
(I01
I-1
tp1198
sg8
(lp1199
I0
aI0
asg198
(lp1200
(lp1201
(ibasic
Hero
p1202
(dp1203
g6
I6
sg148
I17
sg149
I6
sg150
I11
sg151
I0
sg152
I15
sg153
I0
sg154
(I4
I0
tp1204
sg156
I5
sg157
I90
sg158
(lp1205
I1
asba(ibasic
Base_Unit
p1206
(dp1207
g6
I2
sg148
I17
sg149
I3
sg150
I15
sg151
I0
sg152
I12
sg153
I0
sg154
(I1
I0
tp1208
sg156
I6
sg157
I90
sg158
(lp1209
I2
asba(ibasic
Base_Unit
p1210
(dp1211
g6
I3
sg148
I15
sg149
I2
sg150
I5
sg151
I0
sg152
I9
sg153
I0
sg154
(I2
I1
tp1212
sg156
I8
sg157
I95
sg158
(lp1213
I1
asbaa(lp1214
(ibasic
Hero
p1215
(dp1216
g6
I7
sg148
I20
sg149
I6
sg150
I25
sg151
I0
sg152
I12
sg153
I0
sg154
(I3
I0
tp1217
sg156
I6
sg157
I100
sg158
(lp1218
I1
asba(ibasic
Base_Unit
p1219
(dp1220
g6
I1
sg148
I17
sg149
I4
sg150
I13
sg151
I0
sg152
I13
sg153
I0
sg154
(I2
I0
tp1221
sg156
I7
sg157
I90
sg158
(lp1222
I1
asba(ibasic
Base_Unit
p1223
(dp1224
g6
I2
sg148
I17
sg149
I3
sg150
I25
sg151
I0
sg152
I11
sg153
I0
sg154
(I5
I1
tp1225
sg156
I6
sg157
I90
sg158
g1209
sbaasg267
(lp1226
(I5
I0
tp1227
ag1225
asg272
(lp1228
sbaa(lp1229
(ibasic
Round_Begin_Info
p1230
(dp1231
g186
(lp1232
(I4
I0
tp1233
a(I5
I0
tp1234
a(I4
I1
tp1235
a(I6
I0
tp1236
a(I3
I1
tp1237
a(I4
I2
tp1238
a(I7
I0
tp1239
a(I6
I1
tp1240
a(I3
I2
tp1241
a(I7
I1
tp1242
a(I6
I2
tp1243
a(I1
I1
tp1244
a(I2
I2
tp1245
a(I5
I2
tp1246
a(I4
I3
tp1247
asg198
(lp1248
(lp1249
(ibasic
Hero
p1250
(dp1251
g6
I6
sg148
I17
sg149
I6
sg150
I11
sg151
I0
sg152
I15
sg153
I0
sg154
g1233
sg156
I5
sg157
I90
sg158
(lp1252
I1
asba(ibasic
Base_Unit
p1253
(dp1254
g6
I2
sg148
I17
sg149
I3
sg150
I15
sg151
I0
sg152
I12
sg153
I0
sg154
(I1
I0
tp1255
sg156
I6
sg157
I90
sg158
(lp1256
I2
asba(ibasic
Base_Unit
p1257
(dp1258
g6
I3
sg148
I15
sg149
I2
sg150
I5
sg151
I0
sg152
I9
sg153
I0
sg154
(I2
I1
tp1259
sg156
I8
sg157
I95
sg158
(lp1260
I1
asbaa(lp1261
(ibasic
Hero
p1262
(dp1263
g6
I7
sg148
I20
sg149
I6
sg150
I25
sg151
I0
sg152
I12
sg153
I0
sg154
(I3
I0
tp1264
sg156
I6
sg157
I100
sg158
(lp1265
I1
asba(ibasic
Base_Unit
p1266
(dp1267
g6
I1
sg148
I17
sg149
I4
sg150
I13
sg151
I0
sg152
I13
sg153
I0
sg154
(I2
I0
tp1268
sg156
I7
sg157
I90
sg158
(lp1269
I1
asba(ibasic
Base_Unit
p1270
(dp1271
g6
I2
sg148
I17
sg149
I3
sg150
I25
sg151
I0
sg152
I11
sg153
I0
sg154
(I5
I1
tp1272
sg156
I6
sg157
I90
sg158
g1256
sbaasg224
(I0
I0
tp1273
sg226
(lp1274
sba(ibasic
Command
p1275
(dp1276
g230
(I4
I0
tp1277
sg232
I1
sg233
(I1
I0
tp1278
sba(ibasic
Round_End_Info
p1279
(dp1280
g237
I00
sg238
(I01
I01
tp1281
sg8
(lp1282
I0
aI0
asg198
(lp1283
(lp1284
(ibasic
Hero
p1285
(dp1286
g6
I6
sg148
I17
sg149
I6
sg150
I-9
sg151
I0
sg152
I15
sg153
I0
sg154
(I4
I0
tp1287
sg156
I5
sg157
I90
sg158
(lp1288
I1
asba(ibasic
Base_Unit
p1289
(dp1290
g6
I2
sg148
I17
sg149
I3
sg150
I15
sg151
I0
sg152
I12
sg153
I0
sg154
(I1
I0
tp1291
sg156
I6
sg157
I90
sg158
(lp1292
I2
asba(ibasic
Base_Unit
p1293
(dp1294
g6
I3
sg148
I15
sg149
I2
sg150
I5
sg151
I0
sg152
I9
sg153
I0
sg154
(I2
I1
tp1295
sg156
I8
sg157
I95
sg158
(lp1296
I1
asbaa(lp1297
(ibasic
Hero
p1298
(dp1299
g6
I7
sg148
I20
sg149
I6
sg150
I20
sg151
I0
sg152
I12
sg153
I0
sg154
(I3
I0
tp1300
sg156
I6
sg157
I100
sg158
(lp1301
I1
asba(ibasic
Base_Unit
p1302
(dp1303
g6
I1
sg148
I17
sg149
I4
sg150
I13
sg151
I0
sg152
I13
sg153
I0
sg154
(I2
I0
tp1304
sg156
I7
sg157
I90
sg158
(lp1305
I1
asba(ibasic
Base_Unit
p1306
(dp1307
g6
I2
sg148
I17
sg149
I3
sg150
I25
sg151
I0
sg152
I11
sg153
I0
sg154
(I5
I1
tp1308
sg156
I6
sg157
I90
sg158
g1292
sbaasg267
(lp1309
g1287
asg272
(lp1310
sbaa(lp1311
(ibasic
Round_Begin_Info
p1312
(dp1313
g186
(lp1314
(I3
I0
tp1315
a(I4
I0
tp1316
a(I3
I1
tp1317
a(I5
I0
tp1318
a(I4
I1
tp1319
a(I3
I2
tp1320
a(I6
I0
tp1321
a(I4
I2
tp1322
a(I7
I0
tp1323
a(I6
I1
tp1324
a(I5
I2
tp1325
a(I2
I2
tp1326
a(I3
I3
tp1327
a(I7
I1
tp1328
a(I6
I2
tp1329
a(I4
I3
tp1330
asg198
(lp1331
(lp1332
(ibasic
Hero
p1333
(dp1334
g6
I6
sg148
I17
sg149
I6
sg150
I-9
sg151
I0
sg152
I15
sg153
I0
sg154
(I4
I0
tp1335
sg156
I5
sg157
I90
sg158
(lp1336
I1
asba(ibasic
Base_Unit
p1337
(dp1338
g6
I2
sg148
I17
sg149
I3
sg150
I15
sg151
I0
sg152
I12
sg153
I0
sg154
(I1
I0
tp1339
sg156
I6
sg157
I90
sg158
(lp1340
I2
asba(ibasic
Base_Unit
p1341
(dp1342
g6
I3
sg148
I15
sg149
I2
sg150
I5
sg151
I0
sg152
I9
sg153
I0
sg154
(I2
I1
tp1343
sg156
I8
sg157
I95
sg158
(lp1344
I1
asbaa(lp1345
(ibasic
Hero
p1346
(dp1347
g6
I7
sg148
I20
sg149
I6
sg150
I20
sg151
I0
sg152
I12
sg153
I0
sg154
g1315
sg156
I6
sg157
I100
sg158
(lp1348
I1
asba(ibasic
Base_Unit
p1349
(dp1350
g6
I1
sg148
I17
sg149
I4
sg150
I13
sg151
I0
sg152
I13
sg153
I0
sg154
(I2
I0
tp1351
sg156
I7
sg157
I90
sg158
(lp1352
I1
asba(ibasic
Base_Unit
p1353
(dp1354
g6
I2
sg148
I17
sg149
I3
sg150
I25
sg151
I0
sg152
I11
sg153
I0
sg154
(I5
I1
tp1355
sg156
I6
sg157
I90
sg158
g1340
sbaasg224
(I1
I0
tp1356
sg226
(lp1357
sba(ibasic
Command
p1358
(dp1359
g230
(I2
I2
tp1360
sg232
I1
sg233
(I0
I2
tp1361
sba(ibasic
Round_End_Info
p1362
(dp1363
g237
I00
sg238
(I01
I-1
tp1364
sg8
(lp1365
I0
aI0
asg198
(lp1366
(lp1367
(ibasic
Hero
p1368
(dp1369
g6
I6
sg148
I17
sg149
I6
sg150
I-9
sg151
I0
sg152
I15
sg153
I0
sg154
(I4
I0
tp1370
sg156
I5
sg157
I90
sg158
(lp1371
I1
asba(ibasic
Base_Unit
p1372
(dp1373
g6
I2
sg148
I17
sg149
I3
sg150
I15
sg151
I0
sg152
I12
sg153
I0
sg154
(I1
I0
tp1374
sg156
I6
sg157
I90
sg158
(lp1375
I2
asba(ibasic
Base_Unit
p1376
(dp1377
g6
I3
sg148
I15
sg149
I2
sg150
I-15
sg151
I0
sg152
I9
sg153
I0
sg154
(I2
I1
tp1378
sg156
I8
sg157
I95
sg158
(lp1379
I1
asbaa(lp1380
(ibasic
Hero
p1381
(dp1382
g6
I7
sg148
I20
sg149
I6
sg150
I20
sg151
I0
sg152
I13
sg153
I0
sg154
(I2
I2
tp1383
sg156
I6
sg157
I100
sg158
(lp1384
I1
asba(ibasic
Base_Unit
p1385
(dp1386
g6
I1
sg148
I17
sg149
I4
sg150
I13
sg151
I0
sg152
I13
sg153
I0
sg154
(I2
I0
tp1387
sg156
I7
sg157
I90
sg158
(lp1388
I1
asba(ibasic
Base_Unit
p1389
(dp1390
g6
I2
sg148
I17
sg149
I3
sg150
I25
sg151
I0
sg152
I11
sg153
I0
sg154
(I5
I1
tp1391
sg156
I6
sg157
I90
sg158
g1375
sbaasg267
(lp1392
(I3
I0
tp1393
a(I3
I1
tp1394
a(I3
I2
tp1395
ag1383
asg272
(lp1396
sbaa(lp1397
(ibasic
Round_Begin_Info
p1398
(dp1399
g186
(lp1400
(I1
I0
tp1401
a(I0
I0
tp1402
a(I1
I1
tp1403
a(I0
I1
tp1404
a(I2
I1
tp1405
a(I1
I2
tp1406
a(I0
I2
tp1407
a(I3
I1
tp1408
a(I4
I1
tp1409
a(I3
I2
tp1410
a(I3
I0
tp1411
a(I1
I3
tp1412
a(I0
I3
tp1413
a(I4
I2
tp1414
a(I4
I0
tp1415
asg198
(lp1416
(lp1417
(ibasic
Hero
p1418
(dp1419
g6
I6
sg148
I17
sg149
I6
sg150
I-9
sg151
I0
sg152
I15
sg153
I0
sg154
(I4
I0
tp1420
sg156
I5
sg157
I90
sg158
(lp1421
I1
asba(ibasic
Base_Unit
p1422
(dp1423
g6
I2
sg148
I17
sg149
I3
sg150
I15
sg151
I0
sg152
I12
sg153
I0
sg154
g1401
sg156
I6
sg157
I90
sg158
(lp1424
I2
asba(ibasic
Base_Unit
p1425
(dp1426
g6
I3
sg148
I15
sg149
I2
sg150
I-15
sg151
I0
sg152
I9
sg153
I0
sg154
(I2
I1
tp1427
sg156
I8
sg157
I95
sg158
(lp1428
I1
asbaa(lp1429
(ibasic
Hero
p1430
(dp1431
g6
I7
sg148
I20
sg149
I6
sg150
I20
sg151
I0
sg152
I13
sg153
I0
sg154
(I2
I2
tp1432
sg156
I6
sg157
I100
sg158
(lp1433
I1
asba(ibasic
Base_Unit
p1434
(dp1435
g6
I1
sg148
I17
sg149
I4
sg150
I13
sg151
I0
sg152
I13
sg153
I0
sg154
(I2
I0
tp1436
sg156
I7
sg157
I90
sg158
(lp1437
I1
asba(ibasic
Base_Unit
p1438
(dp1439
g6
I2
sg148
I17
sg149
I3
sg150
I25
sg151
I0
sg152
I11
sg153
I0
sg154
(I5
I1
tp1440
sg156
I6
sg157
I90
sg158
g1424
sbaasg224
(I0
I1
tp1441
sg226
(lp1442
sba(ibasic
Command
p1443
(dp1444
g230
(I0
I0
tp1445
sg232
I1
sg233
(I1
I1
tp1446
sba(ibasic
Round_End_Info
p1447
(dp1448
g237
I00
sg238
(I01
I-1
tp1449
sg8
(lp1450
I0
aI0
asg198
(lp1451
(lp1452
(ibasic
Hero
p1453
(dp1454
g6
I6
sg148
I17
sg149
I6
sg150
I-9
sg151
I0
sg152
I15
sg153
I0
sg154
(I4
I0
tp1455
sg156
I5
sg157
I90
sg158
(lp1456
I1
asba(ibasic
Base_Unit
p1457
(dp1458
g6
I2
sg148
I17
sg149
I3
sg150
I15
sg151
I0
sg152
I12
sg153
I0
sg154
(I0
I0
tp1459
sg156
I6
sg157
I90
sg158
(lp1460
I2
asba(ibasic
Base_Unit
p1461
(dp1462
g6
I3
sg148
I15
sg149
I2
sg150
I-15
sg151
I0
sg152
I9
sg153
I0
sg154
(I2
I1
tp1463
sg156
I8
sg157
I95
sg158
(lp1464
I1
asbaa(lp1465
(ibasic
Hero
p1466
(dp1467
g6
I7
sg148
I20
sg149
I6
sg150
I20
sg151
I0
sg152
I13
sg153
I0
sg154
(I2
I2
tp1468
sg156
I6
sg157
I100
sg158
(lp1469
I1
asba(ibasic
Base_Unit
p1470
(dp1471
g6
I1
sg148
I17
sg149
I4
sg150
I9
sg151
I0
sg152
I13
sg153
I0
sg154
(I2
I0
tp1472
sg156
I7
sg157
I90
sg158
(lp1473
I1
asba(ibasic
Base_Unit
p1474
(dp1475
g6
I2
sg148
I17
sg149
I3
sg150
I25
sg151
I0
sg152
I11
sg153
I0
sg154
(I5
I1
tp1476
sg156
I6
sg157
I90
sg158
g1460
sbaasg267
(lp1477
(I1
I0
tp1478
ag1459
asg272
(lp1479
sbaa(lp1480
(ibasic
Round_Begin_Info
p1481
(dp1482
g186
(lp1483
(I2
I0
tp1484
a(I3
I0
tp1485
a(I1
I0
tp1486
a(I2
I1
tp1487
a(I4
I0
tp1488
a(I3
I1
tp1489
a(I1
I1
tp1490
a(I5
I0
tp1491
a(I4
I1
tp1492
a(I3
I2
tp1493
a(I0
I1
tp1494
a(I1
I2
tp1495
a(I6
I0
tp1496
a(I4
I2
tp1497
a(I0
I2
tp1498
a(I2
I3
tp1499
a(I7
I0
tp1500
a(I6
I1
tp1501
a(I5
I2
tp1502
a(I3
I3
tp1503
a(I1
I3
tp1504
a(I7
I1
tp1505
a(I6
I2
tp1506
a(I4
I3
tp1507
a(I0
I3
tp1508
a(I2
I4
tp1509
asg198
(lp1510
(lp1511
(ibasic
Hero
p1512
(dp1513
g6
I6
sg148
I17
sg149
I6
sg150
I-9
sg151
I0
sg152
I15
sg153
I0
sg154
(I4
I0
tp1514
sg156
I5
sg157
I90
sg158
(lp1515
I1
asba(ibasic
Base_Unit
p1516
(dp1517
g6
I2
sg148
I17
sg149
I3
sg150
I15
sg151
I0
sg152
I12
sg153
I0
sg154
(I0
I0
tp1518
sg156
I6
sg157
I90
sg158
(lp1519
I2
asba(ibasic
Base_Unit
p1520
(dp1521
g6
I3
sg148
I15
sg149
I2
sg150
I-15
sg151
I0
sg152
I9
sg153
I0
sg154
(I2
I1
tp1522
sg156
I8
sg157
I95
sg158
(lp1523
I1
asbaa(lp1524
(ibasic
Hero
p1525
(dp1526
g6
I7
sg148
I20
sg149
I6
sg150
I20
sg151
I0
sg152
I13
sg153
I0
sg154
(I2
I2
tp1527
sg156
I6
sg157
I100
sg158
(lp1528
I1
asba(ibasic
Base_Unit
p1529
(dp1530
g6
I1
sg148
I17
sg149
I4
sg150
I9
sg151
I0
sg152
I13
sg153
I0
sg154
g1484
sg156
I7
sg157
I90
sg158
(lp1531
I1
asba(ibasic
Base_Unit
p1532
(dp1533
g6
I2
sg148
I17
sg149
I3
sg150
I25
sg151
I0
sg152
I11
sg153
I0
sg154
(I5
I1
tp1534
sg156
I6
sg157
I90
sg158
g1519
sbaasg224
(I1
I1
tp1535
sg226
(lp1536
sba(ibasic
Command
p1537
(dp1538
g230
(I1
I0
tp1539
sg232
I0
sg233
Nsba(ibasic
Round_End_Info
p1540
(dp1541
g237
I00
sg238
(I-1
I-1
tp1542
sg8
(lp1543
I0
aI0
asg198
(lp1544
(lp1545
(ibasic
Hero
p1546
(dp1547
g6
I6
sg148
I17
sg149
I6
sg150
I-9
sg151
I0
sg152
I15
sg153
I0
sg154
(I4
I0
tp1548
sg156
I5
sg157
I90
sg158
(lp1549
I1
asba(ibasic
Base_Unit
p1550
(dp1551
g6
I2
sg148
I17
sg149
I3
sg150
I15
sg151
I0
sg152
I12
sg153
I0
sg154
(I0
I0
tp1552
sg156
I6
sg157
I90
sg158
(lp1553
I2
asba(ibasic
Base_Unit
p1554
(dp1555
g6
I3
sg148
I15
sg149
I2
sg150
I-15
sg151
I0
sg152
I9
sg153
I0
sg154
(I2
I1
tp1556
sg156
I8
sg157
I95
sg158
(lp1557
I1
asbaa(lp1558
(ibasic
Hero
p1559
(dp1560
g6
I7
sg148
I20
sg149
I6
sg150
I20
sg151
I0
sg152
I13
sg153
I0
sg154
(I2
I2
tp1561
sg156
I6
sg157
I100
sg158
(lp1562
I1
asba(ibasic
Base_Unit
p1563
(dp1564
g6
I1
sg148
I17
sg149
I4
sg150
I9
sg151
I0
sg152
I13
sg153
I0
sg154
(I3
I0
tp1565
sg156
I7
sg157
I90
sg158
(lp1566
I1
asba(ibasic
Base_Unit
p1567
(dp1568
g6
I2
sg148
I17
sg149
I3
sg150
I25
sg151
I0
sg152
I11
sg153
I0
sg154
(I5
I1
tp1569
sg156
I6
sg157
I90
sg158
g1553
sbaasg267
(lp1570
(I2
I0
tp1571
a(I1
I0
tp1572
asg272
(lp1573
sbaa(lp1574
(ibasic
Round_Begin_Info
p1575
(dp1576
g186
(lp1577
(I5
I1
tp1578
a(I6
I1
tp1579
a(I4
I1
tp1580
a(I5
I2
tp1581
a(I5
I0
tp1582
a(I7
I1
tp1583
a(I6
I2
tp1584
a(I6
I0
tp1585
a(I3
I1
tp1586
a(I4
I2
tp1587
a(I4
I0
tp1588
a(I7
I2
tp1589
a(I7
I0
tp1590
a(I2
I1
tp1591
a(I3
I2
tp1592
a(I5
I3
tp1593
a(I6
I3
tp1594
a(I1
I1
tp1595
a(I2
I0
tp1596
a(I4
I3
tp1597
a(I7
I3
tp1598
a(I0
I1
tp1599
a(I1
I2
tp1600
a(I1
I0
tp1601
a(I3
I3
tp1602
a(I5
I4
tp1603
asg198
(lp1604
(lp1605
(ibasic
Hero
p1606
(dp1607
g6
I6
sg148
I17
sg149
I6
sg150
I-9
sg151
I0
sg152
I15
sg153
I0
sg154
(I4
I0
tp1608
sg156
I5
sg157
I90
sg158
(lp1609
I1
asba(ibasic
Base_Unit
p1610
(dp1611
g6
I2
sg148
I17
sg149
I3
sg150
I15
sg151
I0
sg152
I12
sg153
I0
sg154
(I0
I0
tp1612
sg156
I6
sg157
I90
sg158
(lp1613
I2
asba(ibasic
Base_Unit
p1614
(dp1615
g6
I3
sg148
I15
sg149
I2
sg150
I-15
sg151
I0
sg152
I9
sg153
I0
sg154
(I2
I1
tp1616
sg156
I8
sg157
I95
sg158
(lp1617
I1
asbaa(lp1618
(ibasic
Hero
p1619
(dp1620
g6
I7
sg148
I20
sg149
I6
sg150
I20
sg151
I0
sg152
I13
sg153
I0
sg154
(I2
I2
tp1621
sg156
I6
sg157
I100
sg158
(lp1622
I1
asba(ibasic
Base_Unit
p1623
(dp1624
g6
I1
sg148
I17
sg149
I4
sg150
I9
sg151
I0
sg152
I13
sg153
I0
sg154
(I3
I0
tp1625
sg156
I7
sg157
I90
sg158
(lp1626
I1
asba(ibasic
Base_Unit
p1627
(dp1628
g6
I2
sg148
I17
sg149
I3
sg150
I25
sg151
I0
sg152
I11
sg153
I0
sg154
g1578
sg156
I6
sg157
I90
sg158
g1613
sbaasg224
(I1
I2
tp1629
sg226
(lp1630
sba(ibasic
Command
p1631
(dp1632
g230
(I1
I1
tp1633
sg232
I1
sg233
(I0
I1
tp1634
sba(ibasic
Round_End_Info
p1635
(dp1636
g237
I00
sg238
(I01
I01
tp1637
sg8
(lp1638
I0
aI0
asg198
(lp1639
(lp1640
(ibasic
Hero
p1641
(dp1642
g6
I6
sg148
I17
sg149
I6
sg150
I-9
sg151
I0
sg152
I15
sg153
I0
sg154
(I4
I0
tp1643
sg156
I5
sg157
I90
sg158
(lp1644
I1
asba(ibasic
Base_Unit
p1645
(dp1646
g6
I2
sg148
I17
sg149
I3
sg150
I10
sg151
I0
sg152
I12
sg153
I0
sg154
(I0
I0
tp1647
sg156
I6
sg157
I90
sg158
(lp1648
I2
asba(ibasic
Base_Unit
p1649
(dp1650
g6
I3
sg148
I15
sg149
I2
sg150
I-15
sg151
I0
sg152
I9
sg153
I0
sg154
(I2
I1
tp1651
sg156
I8
sg157
I95
sg158
(lp1652
I1
asbaa(lp1653
(ibasic
Hero
p1654
(dp1655
g6
I7
sg148
I20
sg149
I6
sg150
I20
sg151
I0
sg152
I13
sg153
I0
sg154
(I2
I2
tp1656
sg156
I6
sg157
I100
sg158
(lp1657
I1
asba(ibasic
Base_Unit
p1658
(dp1659
g6
I1
sg148
I17
sg149
I4
sg150
I9
sg151
I0
sg152
I13
sg153
I0
sg154
(I3
I0
tp1660
sg156
I7
sg157
I90
sg158
(lp1661
I1
asba(ibasic
Base_Unit
p1662
(dp1663
g6
I2
sg148
I17
sg149
I3
sg150
I19
sg151
I0
sg152
I11
sg153
I0
sg154
(I1
I1
tp1664
sg156
I6
sg157
I90
sg158
g1648
sbaasg267
(lp1665
(I5
I1
tp1666
a(I4
I1
tp1667
a(I3
I1
tp1668
a(I2
I1
tp1669
ag1664
asg272
(lp1670
sbaa(lp1671
(ibasic
Round_Begin_Info
p1672
(dp1673
g186
(lp1674
(I2
I2
tp1675
a(I3
I2
tp1676
a(I1
I2
tp1677
a(I2
I3
tp1678
a(I2
I1
tp1679
a(I3
I1
tp1680
a(I2
I0
tp1681
a(I4
I2
tp1682
a(I3
I3
tp1683
a(I0
I2
tp1684
a(I1
I3
tp1685
a(I2
I4
tp1686
a(I4
I1
tp1687
a(I0
I1
tp1688
a(I1
I0
tp1689
a(I5
I1
tp1690
a(I4
I0
tp1691
asg198
(lp1692
(lp1693
(ibasic
Hero
p1694
(dp1695
g6
I6
sg148
I17
sg149
I6
sg150
I-9
sg151
I0
sg152
I15
sg153
I0
sg154
(I4
I0
tp1696
sg156
I5
sg157
I90
sg158
(lp1697
I1
asba(ibasic
Base_Unit
p1698
(dp1699
g6
I2
sg148
I17
sg149
I3
sg150
I10
sg151
I0
sg152
I12
sg153
I0
sg154
(I0
I0
tp1700
sg156
I6
sg157
I90
sg158
(lp1701
I2
asba(ibasic
Base_Unit
p1702
(dp1703
g6
I3
sg148
I15
sg149
I2
sg150
I-15
sg151
I0
sg152
I9
sg153
I0
sg154
(I2
I1
tp1704
sg156
I8
sg157
I95
sg158
(lp1705
I1
asbaa(lp1706
(ibasic
Hero
p1707
(dp1708
g6
I7
sg148
I20
sg149
I6
sg150
I20
sg151
I0
sg152
I13
sg153
I0
sg154
g1675
sg156
I6
sg157
I100
sg158
(lp1709
I1
asba(ibasic
Base_Unit
p1710
(dp1711
g6
I1
sg148
I17
sg149
I4
sg150
I9
sg151
I0
sg152
I13
sg153
I0
sg154
(I3
I0
tp1712
sg156
I7
sg157
I90
sg158
(lp1713
I1
asba(ibasic
Base_Unit
p1714
(dp1715
g6
I2
sg148
I17
sg149
I3
sg150
I19
sg151
I0
sg152
I11
sg153
I0
sg154
(I1
I1
tp1716
sg156
I6
sg157
I90
sg158
g1701
sbaasg224
(I1
I0
tp1717
sg226
(lp1718
sba(ibasic
Command
p1719
(dp1720
g230
(I0
I1
tp1721
sg232
I1
sg233
(I0
I1
tp1722
sba(ibasic
Round_End_Info
p1723
(dp1724
g237
I00
sg238
(I01
I-1
tp1725
sg8
(lp1726
I0
aI0
asg198
(lp1727
(lp1728
(ibasic
Hero
p1729
(dp1730
g6
I6
sg148
I17
sg149
I6
sg150
I-9
sg151
I0
sg152
I15
sg153
I0
sg154
(I4
I0
tp1731
sg156
I5
sg157
I90
sg158
(lp1732
I1
asba(ibasic
Base_Unit
p1733
(dp1734
g6
I2
sg148
I17
sg149
I3
sg150
I2
sg151
I0
sg152
I12
sg153
I0
sg154
(I0
I0
tp1735
sg156
I6
sg157
I90
sg158
(lp1736
I2
asba(ibasic
Base_Unit
p1737
(dp1738
g6
I3
sg148
I15
sg149
I2
sg150
I-15
sg151
I0
sg152
I9
sg153
I0
sg154
(I2
I1
tp1739
sg156
I8
sg157
I95
sg158
(lp1740
I1
asbaa(lp1741
(ibasic
Hero
p1742
(dp1743
g6
I7
sg148
I20
sg149
I6
sg150
I20
sg151
I0
sg152
I12
sg153
I0
sg154
(I0
I1
tp1744
sg156
I6
sg157
I100
sg158
(lp1745
I1
asba(ibasic
Base_Unit
p1746
(dp1747
g6
I1
sg148
I17
sg149
I4
sg150
I9
sg151
I0
sg152
I13
sg153
I0
sg154
(I3
I0
tp1748
sg156
I7
sg157
I90
sg158
(lp1749
I1
asba(ibasic
Base_Unit
p1750
(dp1751
g6
I2
sg148
I17
sg149
I3
sg150
I19
sg151
I0
sg152
I11
sg153
I0
sg154
(I1
I1
tp1752
sg156
I6
sg157
I90
sg158
g1736
sbaasg267
(lp1753
(I2
I2
tp1754
ag1744
asg272
(lp1755
sbaa(lp1756
(ibasic
Round_Begin_Info
p1757
(dp1758
g186
(lp1759
(I0
I0
tp1760
a(I1
I0
tp1761
a(I2
I0
tp1762
a(I2
I1
tp1763
a(I3
I1
tp1764
a(I2
I2
tp1765
a(I4
I1
tp1766
a(I3
I2
tp1767
asg198
(lp1768
(lp1769
(ibasic
Hero
p1770
(dp1771
g6
I6
sg148
I17
sg149
I6
sg150
I-9
sg151
I0
sg152
I15
sg153
I0
sg154
(I4
I0
tp1772
sg156
I5
sg157
I90
sg158
(lp1773
I1
asba(ibasic
Base_Unit
p1774
(dp1775
g6
I2
sg148
I17
sg149
I3
sg150
I2
sg151
I0
sg152
I12
sg153
I0
sg154
g1760
sg156
I6
sg157
I90
sg158
(lp1776
I2
asba(ibasic
Base_Unit
p1777
(dp1778
g6
I3
sg148
I15
sg149
I2
sg150
I-15
sg151
I0
sg152
I9
sg153
I0
sg154
(I2
I1
tp1779
sg156
I8
sg157
I95
sg158
(lp1780
I1
asbaa(lp1781
(ibasic
Hero
p1782
(dp1783
g6
I7
sg148
I20
sg149
I6
sg150
I20
sg151
I0
sg152
I12
sg153
I0
sg154
(I0
I1
tp1784
sg156
I6
sg157
I100
sg158
(lp1785
I1
asba(ibasic
Base_Unit
p1786
(dp1787
g6
I1
sg148
I17
sg149
I4
sg150
I9
sg151
I0
sg152
I13
sg153
I0
sg154
(I3
I0
tp1788
sg156
I7
sg157
I90
sg158
(lp1789
I1
asba(ibasic
Base_Unit
p1790
(dp1791
g6
I2
sg148
I17
sg149
I3
sg150
I19
sg151
I0
sg152
I11
sg153
I0
sg154
(I1
I1
tp1792
sg156
I6
sg157
I90
sg158
g1776
sbaasg224
(I0
I1
tp1793
sg226
(lp1794
sba(ibasic
Command
p1795
(dp1796
g230
(I0
I0
tp1797
sg232
I1
sg233
(I1
I2
tp1798
sba(ibasic
Round_End_Info
p1799
(dp1800
g237
I01
sg238
(I01
I01
tp1801
sg8
(lp1802
I0
aI0
asg198
(lp1803
(lp1804
(ibasic
Hero
p1805
(dp1806
g6
I6
sg148
I17
sg149
I6
sg150
I-9
sg151
I0
sg152
I15
sg153
I0
sg154
(I4
I0
tp1807
sg156
I5
sg157
I90
sg158
(lp1808
I1
asba(ibasic
Base_Unit
p1809
(dp1810
g6
I2
sg148
I17
sg149
I3
sg150
I-3
sg151
I0
sg152
I12
sg153
I0
sg154
(I0
I0
tp1811
sg156
I6
sg157
I90
sg158
(lp1812
I2
asba(ibasic
Base_Unit
p1813
(dp1814
g6
I3
sg148
I15
sg149
I2
sg150
I-15
sg151
I0
sg152
I9
sg153
I0
sg154
(I2
I1
tp1815
sg156
I8
sg157
I95
sg158
(lp1816
I1
asbaa(lp1817
(ibasic
Hero
p1818
(dp1819
g6
I7
sg148
I20
sg149
I6
sg150
I20
sg151
I0
sg152
I12
sg153
I0
sg154
(I0
I1
tp1820
sg156
I6
sg157
I100
sg158
(lp1821
I1
asba(ibasic
Base_Unit
p1822
(dp1823
g6
I1
sg148
I17
sg149
I4
sg150
I9
sg151
I0
sg152
I13
sg153
I0
sg154
(I3
I0
tp1824
sg156
I7
sg157
I90
sg158
(lp1825
I1
asba(ibasic
Base_Unit
p1826
(dp1827
g6
I2
sg148
I17
sg149
I3
sg150
I13
sg151
I0
sg152
I11
sg153
I0
sg154
(I1
I1
tp1828
sg156
I6
sg157
I90
sg158
g1812
sbaasg267
(lp1829
g1811
asg272
(lp1830
sbaa.