(lp1
((lp2
(lp3
(ibasic
Map_Basic
p4
(dp5
S'kind'
p6
I0
sS'move_consumption'
p7
I1
sS'score'
p8
I0
sba(ibasic
Map_Basic
p9
(dp10
g6
I0
sg7
I1
sg8
I0
sba(ibasic
Map_Basic
p11
(dp12
g6
I1
sg7
I2
sg8
I0
sba(ibasic
Map_Basic
p13
(dp14
g6
I1
sg7
I2
sg8
I0
sba(ibasic
Map_Basic
p15
(dp16
g6
I1
sg7
I2
sg8
I0
sba(ibasic
Map_Basic
p17
(dp18
g6
I1
sg7
I2
sg8
I0
sba(ibasic
Map_Basic
p19
(dp20
g6
I1
sg7
I2
sg8
I0
sba(ibasic
Map_Basic
p21
(dp22
g6
I0
sg7
I1
sg8
I0
sbaa(lp23
(ibasic
Map_Mirror
p24
(dp25
g6
I6
sg7
I1
sg8
I0
sS'out'
p26
(I3
I0
tp27
sba(ibasic
Map_Basic
p28
(dp29
g6
I0
sg7
I1
sg8
I0
sba(ibasic
Map_Basic
p30
(dp31
g6
I1
sg7
I2
sg8
I0
sba(ibasic
Map_Basic
p32
(dp33
g6
I1
sg7
I2
sg8
I0
sba(ibasic
Map_Basic
p34
(dp35
g6
I1
sg7
I2
sg8
I0
sba(ibasic
Map_Basic
p36
(dp37
g6
I1
sg7
I2
sg8
I0
sba(ibasic
Map_Basic
p38
(dp39
g6
I1
sg7
I2
sg8
I0
sba(ibasic
Map_Basic
p40
(dp41
g6
I0
sg7
I1
sg8
I0
sbaa(lp42
(ibasic
Map_Basic
p43
(dp44
g6
I0
sg7
I1
sg8
I0
sba(ibasic
Map_Basic
p45
(dp46
g6
I0
sg7
I1
sg8
I0
sba(ibasic
Map_Basic
p47
(dp48
g6
I1
sg7
I2
sg8
I0
sba(ibasic
Map_Basic
p49
(dp50
g6
I1
sg7
I2
sg8
I0
sba(ibasic
Map_Basic
p51
(dp52
g6
I1
sg7
I2
sg8
I0
sba(ibasic
Map_Basic
p53
(dp54
g6
I1
sg7
I2
sg8
I0
sba(ibasic
Map_Basic
p55
(dp56
g6
I1
sg7
I2
sg8
I0
sba(ibasic
Map_Basic
p57
(dp58
g6
I0
sg7
I1
sg8
I0
sbaa(lp59
(ibasic
Map_Basic
p60
(dp61
g6
I0
sg7
I1
sg8
I0
sba(ibasic
Map_Basic
p62
(dp63
g6
I0
sg7
I1
sg8
I0
sba(ibasic
Map_Basic
p64
(dp65
g6
I1
sg7
I2
sg8
I0
sba(ibasic
Map_Basic
p66
(dp67
g6
I1
sg7
I2
sg8
I0
sba(ibasic
Map_Basic
p68
(dp69
g6
I1
sg7
I2
sg8
I0
sba(ibasic
Map_Basic
p70
(dp71
g6
I1
sg7
I2
sg8
I0
sba(ibasic
Map_Basic
p72
(dp73
g6
I1
sg7
I2
sg8
I0
sba(ibasic
Map_Basic
p74
(dp75
g6
I0
sg7
I1
sg8
I0
sbaa(lp76
(ibasic
Map_Basic
p77
(dp78
g6
I0
sg7
I1
sg8
I0
sba(ibasic
Map_Basic
p79
(dp80
g6
I0
sg7
I1
sg8
I0
sba(ibasic
Map_Basic
p81
(dp82
g6
I1
sg7
I2
sg8
I0
sba(ibasic
Map_Basic
p83
(dp84
g6
I1
sg7
I2
sg8
I0
sba(ibasic
Map_Basic
p85
(dp86
g6
I1
sg7
I2
sg8
I0
sba(ibasic
Map_Basic
p87
(dp88
g6
I1
sg7
I2
sg8
I0
sba(ibasic
Map_Basic
p89
(dp90
g6
I1
sg7
I2
sg8
I0
sba(ibasic
Map_Basic
p91
(dp92
g6
I0
sg7
I1
sg8
I0
sbaa(lp93
(ibasic
Map_Basic
p94
(dp95
g6
I0
sg7
I1
sg8
I0
sba(ibasic
Map_Basic
p96
(dp97
g6
I0
sg7
I1
sg8
I0
sba(ibasic
Map_Basic
p98
(dp99
g6
I1
sg7
I2
sg8
I0
sba(ibasic
Map_Basic
p100
(dp101
g6
I1
sg7
I2
sg8
I0
sba(ibasic
Map_Basic
p102
(dp103
g6
I1
sg7
I2
sg8
I0
sba(ibasic
Map_Basic
p104
(dp105
g6
I1
sg7
I2
sg8
I0
sba(ibasic
Map_Basic
p106
(dp107
g6
I1
sg7
I2
sg8
I0
sba(ibasic
Map_Basic
p108
(dp109
g6
I0
sg7
I1
sg8
I0
sbaa(lp110
(ibasic
Map_Basic
p111
(dp112
g6
I0
sg7
I1
sg8
I0
sba(ibasic
Map_Basic
p113
(dp114
g6
I0
sg7
I1
sg8
I0
sba(ibasic
Map_Basic
p115
(dp116
g6
I1
sg7
I2
sg8
I0
sba(ibasic
Map_Basic
p117
(dp118
g6
I1
sg7
I2
sg8
I0
sba(ibasic
Map_Basic
p119
(dp120
g6
I1
sg7
I2
sg8
I0
sba(ibasic
Map_Basic
p121
(dp122
g6
I1
sg7
I2
sg8
I0
sba(ibasic
Map_Basic
p123
(dp124
g6
I1
sg7
I2
sg8
I0
sba(ibasic
Map_Basic
p125
(dp126
g6
I0
sg7
I1
sg8
I0
sbaa(lp127
(ibasic
Map_Basic
p128
(dp129
g6
I0
sg7
I1
sg8
I0
sba(ibasic
Map_Basic
p130
(dp131
g6
I0
sg7
I1
sg8
I0
sba(ibasic
Map_Basic
p132
(dp133
g6
I1
sg7
I2
sg8
I0
sba(ibasic
Map_Basic
p134
(dp135
g6
I1
sg7
I2
sg8
I0
sba(ibasic
Map_Basic
p136
(dp137
g6
I1
sg7
I2
sg8
I0
sba(ibasic
Map_Basic
p138
(dp139
g6
I1
sg7
I2
sg8
I0
sba(ibasic
Map_Basic
p140
(dp141
g6
I1
sg7
I2
sg8
I0
sba(ibasic
Map_Basic
p142
(dp143
g6
I0
sg7
I1
sg8
I0
sbaa(lp144
(lp145
(ibasic
Base_Unit
p146
(dp147
g6
I6
sS'strength'
p148
I10
sS'move_speed'
p149
I0
sS'life'
p150
I21
sS'up'
p151
I0
sS'defence'
p152
I12
sS'time'
p153
I0
sS'position'
p154
(I0
I0
tp155
sS'move_range'
p156
I6
sS'agility'
p157
I90
sS'attack_range'
p158
(lp159
sba(ibasic
Base_Unit
p160
(dp161
g6
I2
sg148
I17
sg149
I3
sg150
I25
sg151
I0
sg152
I12
sg153
I0
sg154
(I1
I0
tp162
sg156
I6
sg157
I90
sg158
(lp163
I2
asba(ibasic
Base_Unit
p164
(dp165
g6
I3
sg148
I15
sg149
I2
sg150
I21
sg151
I0
sg152
I10
sg153
I0
sg154
(I0
I2
tp166
sg156
I8
sg157
I95
sg158
(lp167
I1
asbaa(lp168
(ibasic
Base_Unit
p169
(dp170
g6
I7
sg148
I15
sg149
I2
sg150
I21
sg151
I0
sg152
I10
sg153
I0
sg154
(I3
I3
tp171
sg156
I8
sg157
I95
sg158
g167
sba(ibasic
Base_Unit
p172
(dp173
g6
I2
sg148
I17
sg149
I3
sg150
I25
sg151
I0
sg152
I12
sg153
I0
sg154
(I3
I2
tp174
sg156
I6
sg157
I90
sg158
g163
sba(ibasic
Base_Unit
p175
(dp176
g6
I1
sg148
I17
sg149
I4
sg150
I25
sg151
I0
sg152
I13
sg153
I0
sg154
(I3
I1
tp177
sg156
I7
sg157
I90
sg158
(lp178
I1
asbaa(lp179
S'Sample'
p180
aS'Player'
p181
atp182
a(lp183
(ibasic
Round_Begin_Info
p184
(dp185
S'range'
p186
(lp187
(I0
I0
tp188
a(I0
I1
tp189
a(I2
I0
tp190
a(I1
I1
tp191
a(I3
I0
tp192
a(I2
I1
tp193
a(I1
I2
tp194
a(I4
I0
tp195
a(I2
I2
tp196
a(I0
I3
tp197
asS'base'
p198
(lp199
(lp200
(ibasic
Hero
p201
(dp202
g6
I6
sg148
I17
sg149
I6
sg150
I55
sg151
I0
sg152
I15
sg153
I0
sg154
g188
sg156
I5
sg157
I90
sg158
(lp203
I1
asba(ibasic
Base_Unit
p204
(dp205
g6
I2
sg148
I17
sg149
I3
sg150
I25
sg151
I0
sg152
I12
sg153
I0
sg154
(I1
I0
tp206
sg156
I6
sg157
I90
sg158
(lp207
I2
asba(ibasic
Base_Unit
p208
(dp209
g6
I3
sg148
I15
sg149
I2
sg150
I21
sg151
I0
sg152
I10
sg153
I0
sg154
(I0
I2
tp210
sg156
I8
sg157
I95
sg158
(lp211
I1
asbaa(lp212
(ibasic
Hero
p213
(dp214
g6
I7
sg148
I20
sg149
I6
sg150
I40
sg151
I0
sg152
I13
sg153
I0
sg154
(I3
I3
tp215
sg156
I6
sg157
I100
sg158
(lp216
I1
asba(ibasic
Base_Unit
p217
(dp218
g6
I1
sg148
I17
sg149
I4
sg150
I25
sg151
I0
sg152
I13
sg153
I0
sg154
(I3
I1
tp219
sg156
I7
sg157
I90
sg158
(lp220
I1
asba(ibasic
Base_Unit
p221
(dp222
g6
I2
sg148
I17
sg149
I3
sg150
I25
sg151
I0
sg152
I12
sg153
I0
sg154
(I3
I2
tp223
sg156
I6
sg157
I90
sg158
g207
sbaasS'id'
p224
(I0
I0
tp225
sS'temple'
p226
(lp227
sba(ibasic
Command
p228
(dp229
S'move'
p230
(I3
I0
tp231
sS'order'
p232
I1
sS'target'
p233
(I1
I1
tp234
sba(ibasic
Round_End_Info
p235
(dp236
S'over'
p237
I00
sg8
(lp238
I0
aI0
asS'route'
p239
(lp240
(I0
I0
tp241
a(I1
I0
tp242
a(I2
I0
tp243
a(I3
I0
tp244
asg198
(lp245
(lp246
(ibasic
Hero
p247
(dp248
g6
I6
sg148
I17
sg149
I6
sg150
I53
sg151
I0
sg152
I15
sg153
I0
sg154
g244
sg156
I5
sg157
I90
sg158
(lp249
I1
asba(ibasic
Base_Unit
p250
(dp251
g6
I2
sg148
I17
sg149
I3
sg150
I25
sg151
I0
sg152
I12
sg153
I0
sg154
(I1
I0
tp252
sg156
I6
sg157
I90
sg158
(lp253
I2
asba(ibasic
Base_Unit
p254
(dp255
g6
I3
sg148
I15
sg149
I2
sg150
I21
sg151
I0
sg152
I10
sg153
I0
sg154
(I0
I2
tp256
sg156
I8
sg157
I95
sg158
(lp257
I1
asbaa(lp258
(ibasic
Hero
p259
(dp260
g6
I7
sg148
I20
sg149
I6
sg150
I40
sg151
I0
sg152
I13
sg153
I0
sg154
(I3
I3
tp261
sg156
I6
sg157
I100
sg158
(lp262
I1
asba(ibasic
Base_Unit
p263
(dp264
g6
I1
sg148
I17
sg149
I4
sg150
I21
sg151
I0
sg152
I13
sg153
I0
sg154
(I3
I1
tp265
sg156
I7
sg157
I90
sg158
(lp266
I1
asba(ibasic
Base_Unit
p267
(dp268
g6
I2
sg148
I17
sg149
I3
sg150
I25
sg151
I0
sg152
I12
sg153
I0
sg154
(I3
I2
tp269
sg156
I6
sg157
I90
sg158
g253
sbaasS'effect'
p270
(I01
I01
tp271
sbaa(lp272
(ibasic
Round_Begin_Info
p273
(dp274
g186
(lp275
(I3
I3
tp276
a(I4
I3
tp277
a(I2
I3
tp278
a(I3
I4
tp279
a(I5
I3
tp280
a(I4
I4
tp281
a(I4
I2
tp282
a(I1
I3
tp283
a(I2
I4
tp284
a(I2
I2
tp285
a(I3
I5
tp286
a(I4
I1
tp287
a(I2
I1
tp288
asg198
(lp289
(lp290
(ibasic
Hero
p291
(dp292
g6
I6
sg148
I17
sg149
I6
sg150
I53
sg151
I0
sg152
I15
sg153
I0
sg154
(I3
I0
tp293
sg156
I5
sg157
I90
sg158
(lp294
I1
asba(ibasic
Base_Unit
p295
(dp296
g6
I2
sg148
I17
sg149
I3
sg150
I25
sg151
I0
sg152
I12
sg153
I0
sg154
(I1
I0
tp297
sg156
I6
sg157
I90
sg158
(lp298
I2
asba(ibasic
Base_Unit
p299
(dp300
g6
I3
sg148
I15
sg149
I2
sg150
I21
sg151
I0
sg152
I10
sg153
I0
sg154
(I0
I2
tp301
sg156
I8
sg157
I95
sg158
(lp302
I1
asbaa(lp303
(ibasic
Hero
p304
(dp305
g6
I7
sg148
I20
sg149
I6
sg150
I40
sg151
I0
sg152
I13
sg153
I0
sg154
g276
sg156
I6
sg157
I100
sg158
(lp306
I1
asba(ibasic
Base_Unit
p307
(dp308
g6
I1
sg148
I17
sg149
I4
sg150
I21
sg151
I0
sg152
I13
sg153
I0
sg154
(I3
I1
tp309
sg156
I7
sg157
I90
sg158
(lp310
I1
asba(ibasic
Base_Unit
p311
(dp312
g6
I2
sg148
I17
sg149
I3
sg150
I25
sg151
I0
sg152
I12
sg153
I0
sg154
(I3
I2
tp313
sg156
I6
sg157
I90
sg158
g298
sbaasg224
(I1
I0
tp314
sg226
(lp315
sba(ibasic
Command
p316
(dp317
g230
(I2
I2
tp318
sg232
I0
sg233
Nsba(ibasic
Round_End_Info
p319
(dp320
g237
I00
sg8
(lp321
I0
aI0
asg239
(lp322
(I3
I3
tp323
a(I3
I2
tp324
a(I2
I2
tp325
asg198
(lp326
(lp327
(ibasic
Hero
p328
(dp329
g6
I6
sg148
I17
sg149
I6
sg150
I53
sg151
I0
sg152
I15
sg153
I0
sg154
(I3
I0
tp330
sg156
I5
sg157
I90
sg158
(lp331
I1
asba(ibasic
Base_Unit
p332
(dp333
g6
I2
sg148
I17
sg149
I3
sg150
I25
sg151
I0
sg152
I12
sg153
I0
sg154
(I1
I0
tp334
sg156
I6
sg157
I90
sg158
(lp335
I2
asba(ibasic
Base_Unit
p336
(dp337
g6
I3
sg148
I15
sg149
I2
sg150
I21
sg151
I0
sg152
I10
sg153
I0
sg154
(I0
I2
tp338
sg156
I8
sg157
I95
sg158
(lp339
I1
asbaa(lp340
(ibasic
Hero
p341
(dp342
g6
I7
sg148
I20
sg149
I6
sg150
I40
sg151
I0
sg152
I13
sg153
I0
sg154
g325
sg156
I6
sg157
I100
sg158
(lp343
I1
asba(ibasic
Base_Unit
p344
(dp345
g6
I1
sg148
I17
sg149
I4
sg150
I21
sg151
I0
sg152
I13
sg153
I0
sg154
(I3
I1
tp346
sg156
I7
sg157
I90
sg158
(lp347
I1
asba(ibasic
Base_Unit
p348
(dp349
g6
I2
sg148
I17
sg149
I3
sg150
I25
sg151
I0
sg152
I12
sg153
I0
sg154
(I3
I2
tp350
sg156
I6
sg157
I90
sg158
g335
sbaasg270
(I-1
I-1
tp351
sbaa(lp352
(ibasic
Round_Begin_Info
p353
(dp354
g186
(lp355
(I1
I0
tp356
a(I2
I0
tp357
a(I0
I0
tp358
a(I1
I1
tp359
a(I2
I1
tp360
a(I0
I1
tp361
a(I1
I2
tp362
a(I4
I0
tp363
a(I5
I0
tp364
a(I4
I1
tp365
a(I1
I3
tp366
a(I6
I0
tp367
a(I5
I1
tp368
a(I4
I2
tp369
a(I0
I3
tp370
asg198
(lp371
(lp372
(ibasic
Hero
p373
(dp374
g6
I6
sg148
I17
sg149
I6
sg150
I53
sg151
I0
sg152
I15
sg153
I0
sg154
(I3
I0
tp375
sg156
I5
sg157
I90
sg158
(lp376
I1
asba(ibasic
Base_Unit
p377
(dp378
g6
I2
sg148
I17
sg149
I3
sg150
I25
sg151
I0
sg152
I12
sg153
I0
sg154
g356
sg156
I6
sg157
I90
sg158
(lp379
I2
asba(ibasic
Base_Unit
p380
(dp381
g6
I3
sg148
I15
sg149
I2
sg150
I21
sg151
I0
sg152
I10
sg153
I0
sg154
(I0
I2
tp382
sg156
I8
sg157
I95
sg158
(lp383
I1
asbaa(lp384
(ibasic
Hero
p385
(dp386
g6
I7
sg148
I20
sg149
I6
sg150
I40
sg151
I0
sg152
I13
sg153
I0
sg154
(I2
I2
tp387
sg156
I6
sg157
I100
sg158
(lp388
I1
asba(ibasic
Base_Unit
p389
(dp390
g6
I1
sg148
I17
sg149
I4
sg150
I21
sg151
I0
sg152
I13
sg153
I0
sg154
(I3
I1
tp391
sg156
I7
sg157
I90
sg158
(lp392
I1
asba(ibasic
Base_Unit
p393
(dp394
g6
I2
sg148
I17
sg149
I3
sg150
I25
sg151
I0
sg152
I12
sg153
I0
sg154
(I3
I2
tp395
sg156
I6
sg157
I90
sg158
g379
sbaasg224
(I0
I1
tp396
sg226
(lp397
sba(ibasic
Command
p398
(dp399
g230
(I2
I0
tp400
sg232
I1
sg233
(I1
I0
tp401
sba(ibasic
Round_End_Info
p402
(dp403
g237
I00
sg8
(lp404
I0
aI0
asg239
(lp405
(I1
I0
tp406
a(I2
I0
tp407
asg198
(lp408
(lp409
(ibasic
Hero
p410
(dp411
g6
I6
sg148
I17
sg149
I6
sg150
I53
sg151
I0
sg152
I15
sg153
I0
sg154
(I3
I0
tp412
sg156
I5
sg157
I90
sg158
(lp413
I1
asba(ibasic
Base_Unit
p414
(dp415
g6
I2
sg148
I17
sg149
I3
sg150
I25
sg151
I0
sg152
I12
sg153
I0
sg154
g407
sg156
I6
sg157
I90
sg158
(lp416
I2
asba(ibasic
Base_Unit
p417
(dp418
g6
I3
sg148
I15
sg149
I2
sg150
I21
sg151
I0
sg152
I10
sg153
I0
sg154
(I0
I2
tp419
sg156
I8
sg157
I95
sg158
(lp420
I1
asbaa(lp421
(ibasic
Hero
p422
(dp423
g6
I7
sg148
I20
sg149
I6
sg150
I40
sg151
I0
sg152
I13
sg153
I0
sg154
(I2
I2
tp424
sg156
I6
sg157
I100
sg158
(lp425
I1
asba(ibasic
Base_Unit
p426
(dp427
g6
I1
sg148
I17
sg149
I4
sg150
I21
sg151
I0
sg152
I13
sg153
I0
sg154
(I3
I1
tp428
sg156
I7
sg157
I90
sg158
(lp429
I1
asba(ibasic
Base_Unit
p430
(dp431
g6
I2
sg148
I17
sg149
I3
sg150
I25
sg151
I0
sg152
I12
sg153
I0
sg154
(I3
I2
tp432
sg156
I6
sg157
I90
sg158
g416
sbaasg270
(I00
I-1
tp433
sbaa(lp434
(ibasic
Round_Begin_Info
p435
(dp436
g186
(lp437
(I3
I1
tp438
a(I4
I1
tp439
a(I2
I1
tp440
a(I5
I1
tp441
a(I4
I2
tp442
a(I4
I0
tp443
a(I1
I1
tp444
a(I6
I1
tp445
a(I5
I2
tp446
a(I5
I0
tp447
a(I0
I1
tp448
a(I1
I2
tp449
a(I1
I0
tp450
a(I3
I3
tp451
a(I7
I1
tp452
a(I6
I2
tp453
a(I6
I0
tp454
a(I4
I3
tp455
a(I0
I0
tp456
a(I2
I3
tp457
a(I7
I2
tp458
a(I7
I0
tp459
a(I5
I3
tp460
a(I1
I3
tp461
a(I3
I4
tp462
a(I6
I3
tp463
a(I4
I4
tp464
a(I2
I4
tp465
asg198
(lp466
(lp467
(ibasic
Hero
p468
(dp469
g6
I6
sg148
I17
sg149
I6
sg150
I53
sg151
I0
sg152
I15
sg153
I0
sg154
(I3
I0
tp470
sg156
I5
sg157
I90
sg158
(lp471
I1
asba(ibasic
Base_Unit
p472
(dp473
g6
I2
sg148
I17
sg149
I3
sg150
I25
sg151
I0
sg152
I12
sg153
I0
sg154
(I2
I0
tp474
sg156
I6
sg157
I90
sg158
(lp475
I2
asba(ibasic
Base_Unit
p476
(dp477
g6
I3
sg148
I15
sg149
I2
sg150
I21
sg151
I0
sg152
I10
sg153
I0
sg154
(I0
I2
tp478
sg156
I8
sg157
I95
sg158
(lp479
I1
asbaa(lp480
(ibasic
Hero
p481
(dp482
g6
I7
sg148
I20
sg149
I6
sg150
I40
sg151
I0
sg152
I13
sg153
I0
sg154
(I2
I2
tp483
sg156
I6
sg157
I100
sg158
(lp484
I1
asba(ibasic
Base_Unit
p485
(dp486
g6
I1
sg148
I17
sg149
I4
sg150
I21
sg151
I0
sg152
I13
sg153
I0
sg154
g438
sg156
I7
sg157
I90
sg158
(lp487
I1
asba(ibasic
Base_Unit
p488
(dp489
g6
I2
sg148
I17
sg149
I3
sg150
I25
sg151
I0
sg152
I12
sg153
I0
sg154
(I3
I2
tp490
sg156
I6
sg157
I90
sg158
g475
sbaasg224
(I1
I1
tp491
sg226
(lp492
sba(ibasic
Command
p493
(dp494
g230
(I2
I1
tp495
sg232
I0
sg233
Nsba(ibasic
Round_End_Info
p496
(dp497
g237
I00
sg8
(lp498
I0
aI0
asg239
(lp499
(I3
I1
tp500
a(I2
I1
tp501
asg198
(lp502
(lp503
(ibasic
Hero
p504
(dp505
g6
I6
sg148
I17
sg149
I6
sg150
I53
sg151
I0
sg152
I15
sg153
I0
sg154
(I3
I0
tp506
sg156
I5
sg157
I90
sg158
(lp507
I1
asba(ibasic
Base_Unit
p508
(dp509
g6
I2
sg148
I17
sg149
I3
sg150
I25
sg151
I0
sg152
I12
sg153
I0
sg154
(I2
I0
tp510
sg156
I6
sg157
I90
sg158
(lp511
I2
asba(ibasic
Base_Unit
p512
(dp513
g6
I3
sg148
I15
sg149
I2
sg150
I21
sg151
I0
sg152
I10
sg153
I0
sg154
(I0
I2
tp514
sg156
I8
sg157
I95
sg158
(lp515
I1
asbaa(lp516
(ibasic
Hero
p517
(dp518
g6
I7
sg148
I20
sg149
I6
sg150
I40
sg151
I0
sg152
I13
sg153
I0
sg154
(I2
I2
tp519
sg156
I6
sg157
I100
sg158
(lp520
I1
asba(ibasic
Base_Unit
p521
(dp522
g6
I1
sg148
I17
sg149
I4
sg150
I21
sg151
I0
sg152
I13
sg153
I0
sg154
g501
sg156
I7
sg157
I90
sg158
(lp523
I1
asba(ibasic
Base_Unit
p524
(dp525
g6
I2
sg148
I17
sg149
I3
sg150
I25
sg151
I0
sg152
I12
sg153
I0
sg154
(I3
I2
tp526
sg156
I6
sg157
I90
sg158
g511
sbaasg270
(I-1
I-1
tp527
sbaa(lp528
(ibasic
Round_Begin_Info
p529
(dp530
g186
(lp531
(I0
I2
tp532
a(I1
I2
tp533
a(I0
I3
tp534
a(I0
I1
tp535
a(I1
I1
tp536
a(I0
I0
tp537
a(I2
I2
tp538
a(I1
I3
tp539
a(I0
I4
tp540
a(I2
I1
tp541
a(I1
I0
tp542
a(I3
I1
tp543
a(I3
I2
tp544
a(I2
I3
tp545
a(I1
I4
tp546
a(I0
I5
tp547
a(I4
I1
tp548
a(I5
I1
tp549
a(I4
I2
tp550
a(I4
I0
tp551
asg198
(lp552
(lp553
(ibasic
Hero
p554
(dp555
g6
I6
sg148
I17
sg149
I6
sg150
I53
sg151
I0
sg152
I15
sg153
I0
sg154
(I3
I0
tp556
sg156
I5
sg157
I90
sg158
(lp557
I1
asba(ibasic
Base_Unit
p558
(dp559
g6
I2
sg148
I17
sg149
I3
sg150
I25
sg151
I0
sg152
I12
sg153
I0
sg154
(I2
I0
tp560
sg156
I6
sg157
I90
sg158
(lp561
I2
asba(ibasic
Base_Unit
p562
(dp563
g6
I3
sg148
I15
sg149
I2
sg150
I21
sg151
I0
sg152
I10
sg153
I0
sg154
g532
sg156
I8
sg157
I95
sg158
(lp564
I1
asbaa(lp565
(ibasic
Hero
p566
(dp567
g6
I7
sg148
I20
sg149
I6
sg150
I40
sg151
I0
sg152
I13
sg153
I0
sg154
(I2
I2
tp568
sg156
I6
sg157
I100
sg158
(lp569
I1
asba(ibasic
Base_Unit
p570
(dp571
g6
I1
sg148
I17
sg149
I4
sg150
I21
sg151
I0
sg152
I13
sg153
I0
sg154
(I2
I1
tp572
sg156
I7
sg157
I90
sg158
(lp573
I1
asba(ibasic
Base_Unit
p574
(dp575
g6
I2
sg148
I17
sg149
I3
sg150
I25
sg151
I0
sg152
I12
sg153
I0
sg154
(I3
I2
tp576
sg156
I6
sg157
I90
sg158
g561
sbaasg224
(I0
I2
tp577
sg226
(lp578
sba(ibasic
Command
p579
(dp580
g230
(I1
I2
tp581
sg232
I1
sg233
(I1
I0
tp582
sba(ibasic
Round_End_Info
p583
(dp584
g237
I00
sg8
(lp585
I0
aI0
asg239
(lp586
(I0
I2
tp587
a(I1
I2
tp588
asg198
(lp589
(lp590
(ibasic
Hero
p591
(dp592
g6
I6
sg148
I17
sg149
I6
sg150
I53
sg151
I0
sg152
I15
sg153
I0
sg154
(I3
I0
tp593
sg156
I5
sg157
I90
sg158
(lp594
I1
asba(ibasic
Base_Unit
p595
(dp596
g6
I2
sg148
I17
sg149
I3
sg150
I25
sg151
I0
sg152
I12
sg153
I0
sg154
(I2
I0
tp597
sg156
I6
sg157
I90
sg158
(lp598
I2
asba(ibasic
Base_Unit
p599
(dp600
g6
I3
sg148
I15
sg149
I2
sg150
I11
sg151
I0
sg152
I10
sg153
I0
sg154
g588
sg156
I8
sg157
I95
sg158
(lp601
I1
asbaa(lp602
(ibasic
Hero
p603
(dp604
g6
I7
sg148
I20
sg149
I6
sg150
I38
sg151
I0
sg152
I13
sg153
I0
sg154
(I2
I2
tp605
sg156
I6
sg157
I100
sg158
(lp606
I1
asba(ibasic
Base_Unit
p607
(dp608
g6
I1
sg148
I17
sg149
I4
sg150
I21
sg151
I0
sg152
I13
sg153
I0
sg154
(I2
I1
tp609
sg156
I7
sg157
I90
sg158
(lp610
I1
asba(ibasic
Base_Unit
p611
(dp612
g6
I2
sg148
I17
sg149
I3
sg150
I25
sg151
I0
sg152
I12
sg153
I0
sg154
(I3
I2
tp613
sg156
I6
sg157
I90
sg158
g598
sbaasg270
(I01
I01
tp614
sbaa(lp615
(ibasic
Round_Begin_Info
p616
(dp617
g186
(lp618
(I3
I2
tp619
a(I4
I2
tp620
a(I3
I3
tp621
a(I3
I1
tp622
a(I4
I1
tp623
a(I5
I2
tp624
a(I4
I3
tp625
a(I2
I3
tp626
a(I3
I4
tp627
a(I5
I1
tp628
a(I4
I0
tp629
a(I1
I1
tp630
a(I6
I1
tp631
a(I5
I0
tp632
a(I0
I1
tp633
a(I1
I0
tp634
asg198
(lp635
(lp636
(ibasic
Hero
p637
(dp638
g6
I6
sg148
I17
sg149
I6
sg150
I53
sg151
I0
sg152
I15
sg153
I0
sg154
(I3
I0
tp639
sg156
I5
sg157
I90
sg158
(lp640
I1
asba(ibasic
Base_Unit
p641
(dp642
g6
I2
sg148
I17
sg149
I3
sg150
I25
sg151
I0
sg152
I12
sg153
I0
sg154
(I2
I0
tp643
sg156
I6
sg157
I90
sg158
(lp644
I2
asba(ibasic
Base_Unit
p645
(dp646
g6
I3
sg148
I15
sg149
I2
sg150
I11
sg151
I0
sg152
I10
sg153
I0
sg154
(I1
I2
tp647
sg156
I8
sg157
I95
sg158
(lp648
I1
asbaa(lp649
(ibasic
Hero
p650
(dp651
g6
I7
sg148
I20
sg149
I6
sg150
I38
sg151
I0
sg152
I13
sg153
I0
sg154
(I2
I2
tp652
sg156
I6
sg157
I100
sg158
(lp653
I1
asba(ibasic
Base_Unit
p654
(dp655
g6
I1
sg148
I17
sg149
I4
sg150
I21
sg151
I0
sg152
I13
sg153
I0
sg154
(I2
I1
tp656
sg156
I7
sg157
I90
sg158
(lp657
I1
asba(ibasic
Base_Unit
p658
(dp659
g6
I2
sg148
I17
sg149
I3
sg150
I25
sg151
I0
sg152
I12
sg153
I0
sg154
g619
sg156
I6
sg157
I90
sg158
g644
sbaasg224
(I1
I2
tp660
sg226
(lp661
sba(ibasic
Command
p662
(dp663
g230
(I3
I3
tp664
sg232
I0
sg233
Nsba(ibasic
Round_End_Info
p665
(dp666
g237
I01
sg8
(lp667
I0
aI0
asg239
(lp668
(I3
I2
tp669
a(I3
I3
tp670
asg198
(lp671
(lp672
(ibasic
Hero
p673
(dp674
g6
I6
sg148
I17
sg149
I6
sg150
I53
sg151
I0
sg152
I15
sg153
I0
sg154
(I3
I0
tp675
sg156
I5
sg157
I90
sg158
(lp676
I1
asba(ibasic
Base_Unit
p677
(dp678
g6
I2
sg148
I17
sg149
I3
sg150
I25
sg151
I0
sg152
I12
sg153
I0
sg154
(I2
I0
tp679
sg156
I6
sg157
I90
sg158
(lp680
I2
asba(ibasic
Base_Unit
p681
(dp682
g6
I3
sg148
I15
sg149
I2
sg150
I11
sg151
I0
sg152
I10
sg153
I0
sg154
(I1
I2
tp683
sg156
I8
sg157
I95
sg158
(lp684
I1
asbaa(lp685
(ibasic
Hero
p686
(dp687
g6
I7
sg148
I20
sg149
I6
sg150
I38
sg151
I0
sg152
I13
sg153
I0
sg154
(I2
I2
tp688
sg156
I6
sg157
I100
sg158
(lp689
I1
asba(ibasic
Base_Unit
p690
(dp691
g6
I1
sg148
I17
sg149
I4
sg150
I21
sg151
I0
sg152
I13
sg153
I0
sg154
(I2
I1
tp692
sg156
I7
sg157
I90
sg158
(lp693
I1
asba(ibasic
Base_Unit
p694
(dp695
g6
I2
sg148
I17
sg149
I3
sg150
I25
sg151
I0
sg152
I12
sg153
I0
sg154
g670
sg156
I6
sg157
I90
sg158
g680
sbaasg270
(I-1
I-1
tp696
sbaa.