(ibasic
Begin_Info
p1
(dp2
S'map'
p3
(lp4
(lp5
(ibasic
Map_Basic
p6
(dp7
S'kind'
p8
I3
sS'move_consumption'
p9
I1
sS'score'
p10
I0
sba(ibasic
Map_Basic
p11
(dp12
g8
I0
sg9
I1
sg10
I0
sba(ibasic
Map_Basic
p13
(dp14
g8
I0
sg9
I1
sg10
I0
sba(ibasic
Map_Basic
p15
(dp16
g8
I0
sg9
I1
sg10
I0
sba(ibasic
Map_Basic
p17
(dp18
g8
I3
sg9
I1
sg10
I0
sba(ibasic
Map_Basic
p19
(dp20
g8
I3
sg9
I1
sg10
I0
sba(ibasic
Map_Basic
p21
(dp22
g8
I2
sg9
I3
sg10
I0
sba(ibasic
Map_Basic
p23
(dp24
g8
I2
sg9
I3
sg10
I0
sba(ibasic
Map_Basic
p25
(dp26
g8
I2
sg9
I3
sg10
I0
sba(ibasic
Map_Basic
p27
(dp28
g8
I3
sg9
I1
sg10
I0
sba(ibasic
Map_Basic
p29
(dp30
g8
I3
sg9
I1
sg10
I0
sba(ibasic
Map_Basic
p31
(dp32
g8
I2
sg9
I3
sg10
I0
sba(ibasic
Map_Basic
p33
(dp34
g8
I2
sg9
I3
sg10
I0
sba(ibasic
Map_Basic
p35
(dp36
g8
I2
sg9
I3
sg10
I0
sba(ibasic
Map_Basic
p37
(dp38
g8
I3
sg9
I1
sg10
I0
sba(ibasic
Map_Basic
p39
(dp40
g8
I3
sg9
I1
sg10
I0
sba(ibasic
Map_Basic
p41
(dp42
g8
I0
sg9
I1
sg10
I0
sba(ibasic
Map_Basic
p43
(dp44
g8
I0
sg9
I1
sg10
I0
sba(ibasic
Map_Basic
p45
(dp46
g8
I0
sg9
I1
sg10
I0
sba(ibasic
Map_Basic
p47
(dp48
g8
I3
sg9
I1
sg10
I0
sbaa(lp49
(ibasic
Map_Basic
p50
(dp51
g8
I0
sg9
I1
sg10
I0
sba(ibasic
Map_Basic
p52
(dp53
g8
I0
sg9
I1
sg10
I0
sba(ibasic
Map_Basic
p54
(dp55
g8
I0
sg9
I1
sg10
I0
sba(ibasic
Map_Basic
p56
(dp57
g8
I0
sg9
I1
sg10
I0
sba(ibasic
Map_Basic
p58
(dp59
g8
I0
sg9
I1
sg10
I0
sba(ibasic
Map_Basic
p60
(dp61
g8
I0
sg9
I1
sg10
I0
sba(ibasic
Map_Basic
p62
(dp63
g8
I2
sg9
I3
sg10
I0
sba(ibasic
Map_Basic
p64
(dp65
g8
I2
sg9
I3
sg10
I0
sba(ibasic
Map_Basic
p66
(dp67
g8
I2
sg9
I3
sg10
I0
sba(ibasic
Map_Basic
p68
(dp69
g8
I0
sg9
I1
sg10
I0
sba(ibasic
Map_Basic
p70
(dp71
g8
I0
sg9
I1
sg10
I0
sba(ibasic
Map_Basic
p72
(dp73
g8
I2
sg9
I3
sg10
I0
sba(ibasic
Map_Basic
p74
(dp75
g8
I2
sg9
I3
sg10
I0
sba(ibasic
Map_Basic
p76
(dp77
g8
I2
sg9
I3
sg10
I0
sba(ibasic
Map_Basic
p78
(dp79
g8
I0
sg9
I1
sg10
I0
sba(ibasic
Map_Basic
p80
(dp81
g8
I0
sg9
I1
sg10
I0
sba(ibasic
Map_Basic
p82
(dp83
g8
I0
sg9
I1
sg10
I0
sba(ibasic
Map_Basic
p84
(dp85
g8
I0
sg9
I1
sg10
I0
sba(ibasic
Map_Basic
p86
(dp87
g8
I0
sg9
I1
sg10
I0
sba(ibasic
Map_Basic
p88
(dp89
g8
I0
sg9
I1
sg10
I0
sbaa(lp90
(ibasic
Map_Basic
p91
(dp92
g8
I0
sg9
I1
sg10
I0
sba(ibasic
Map_Basic
p93
(dp94
g8
I0
sg9
I1
sg10
I0
sba(ibasic
Map_Basic
p95
(dp96
g8
I0
sg9
I1
sg10
I0
sba(ibasic
Map_Basic
p97
(dp98
g8
I0
sg9
I1
sg10
I0
sba(ibasic
Map_Basic
p99
(dp100
g8
I0
sg9
I1
sg10
I0
sba(ibasic
Map_Basic
p101
(dp102
g8
I0
sg9
I1
sg10
I0
sba(ibasic
Map_Basic
p103
(dp104
g8
I2
sg9
I3
sg10
I0
sba(ibasic
Map_Basic
p105
(dp106
g8
I0
sg9
I1
sg10
I0
sba(ibasic
Map_Basic
p107
(dp108
g8
I0
sg9
I1
sg10
I0
sba(ibasic
Map_Basic
p109
(dp110
g8
I0
sg9
I1
sg10
I0
sba(ibasic
Map_Basic
p111
(dp112
g8
I0
sg9
I1
sg10
I0
sba(ibasic
Map_Basic
p113
(dp114
g8
I0
sg9
I1
sg10
I0
sba(ibasic
Map_Basic
p115
(dp116
g8
I0
sg9
I1
sg10
I0
sba(ibasic
Map_Basic
p117
(dp118
g8
I2
sg9
I3
sg10
I0
sba(ibasic
Map_Basic
p119
(dp120
g8
I0
sg9
I1
sg10
I0
sba(ibasic
Map_Basic
p121
(dp122
g8
I0
sg9
I1
sg10
I0
sba(ibasic
Map_Basic
p123
(dp124
g8
I0
sg9
I1
sg10
I0
sba(ibasic
Map_Basic
p125
(dp126
g8
I0
sg9
I1
sg10
I0
sba(ibasic
Map_Basic
p127
(dp128
g8
I0
sg9
I1
sg10
I0
sba(ibasic
Map_Basic
p129
(dp130
g8
I0
sg9
I1
sg10
I0
sbaa(lp131
(ibasic
Map_Basic
p132
(dp133
g8
I0
sg9
I1
sg10
I0
sba(ibasic
Map_Basic
p134
(dp135
g8
I0
sg9
I1
sg10
I0
sba(ibasic
Map_Basic
p136
(dp137
g8
I0
sg9
I1
sg10
I0
sba(ibasic
Map_Basic
p138
(dp139
g8
I0
sg9
I1
sg10
I0
sba(ibasic
Map_Basic
p140
(dp141
g8
I0
sg9
I1
sg10
I0
sba(ibasic
Map_Basic
p142
(dp143
g8
I0
sg9
I1
sg10
I0
sba(ibasic
Map_Basic
p144
(dp145
g8
I0
sg9
I1
sg10
I0
sba(ibasic
Map_Basic
p146
(dp147
g8
I0
sg9
I1
sg10
I0
sba(ibasic
Map_Basic
p148
(dp149
g8
I0
sg9
I1
sg10
I0
sba(ibasic
Map_Turret
p150
(dp151
g8
I4
sg9
I1
sg10
I2
sS'time'
p152
I0
sba(ibasic
Map_Turret
p153
(dp154
g8
I4
sg9
I1
sg10
I2
sg152
I0
sba(ibasic
Map_Basic
p155
(dp156
g8
I0
sg9
I1
sg10
I0
sba(ibasic
Map_Basic
p157
(dp158
g8
I0
sg9
I1
sg10
I0
sba(ibasic
Map_Basic
p159
(dp160
g8
I0
sg9
I1
sg10
I0
sba(ibasic
Map_Basic
p161
(dp162
g8
I0
sg9
I1
sg10
I0
sba(ibasic
Map_Basic
p163
(dp164
g8
I0
sg9
I1
sg10
I0
sba(ibasic
Map_Basic
p165
(dp166
g8
I0
sg9
I1
sg10
I0
sba(ibasic
Map_Basic
p167
(dp168
g8
I0
sg9
I1
sg10
I0
sba(ibasic
Map_Basic
p169
(dp170
g8
I0
sg9
I1
sg10
I0
sba(ibasic
Map_Basic
p171
(dp172
g8
I0
sg9
I1
sg10
I0
sbaa(lp173
(ibasic
Map_Basic
p174
(dp175
g8
I0
sg9
I1
sg10
I0
sba(ibasic
Map_Basic
p176
(dp177
g8
I0
sg9
I1
sg10
I0
sba(ibasic
Map_Basic
p178
(dp179
g8
I0
sg9
I1
sg10
I0
sba(ibasic
Map_Basic
p180
(dp181
g8
I0
sg9
I1
sg10
I0
sba(ibasic
Map_Basic
p182
(dp183
g8
I0
sg9
I1
sg10
I0
sba(ibasic
Map_Basic
p184
(dp185
g8
I0
sg9
I1
sg10
I0
sba(ibasic
Map_Basic
p186
(dp187
g8
I0
sg9
I1
sg10
I0
sba(ibasic
Map_Basic
p188
(dp189
g8
I2
sg9
I3
sg10
I0
sba(ibasic
Map_Basic
p190
(dp191
g8
I2
sg9
I3
sg10
I0
sba(ibasic
Map_Basic
p192
(dp193
g8
I2
sg9
I3
sg10
I0
sba(ibasic
Map_Basic
p194
(dp195
g8
I2
sg9
I3
sg10
I0
sba(ibasic
Map_Basic
p196
(dp197
g8
I2
sg9
I3
sg10
I0
sba(ibasic
Map_Basic
p198
(dp199
g8
I2
sg9
I3
sg10
I0
sba(ibasic
Map_Basic
p200
(dp201
g8
I0
sg9
I1
sg10
I0
sba(ibasic
Map_Basic
p202
(dp203
g8
I0
sg9
I1
sg10
I0
sba(ibasic
Map_Basic
p204
(dp205
g8
I0
sg9
I1
sg10
I0
sba(ibasic
Map_Basic
p206
(dp207
g8
I0
sg9
I1
sg10
I0
sba(ibasic
Map_Basic
p208
(dp209
g8
I0
sg9
I1
sg10
I0
sba(ibasic
Map_Basic
p210
(dp211
g8
I0
sg9
I1
sg10
I0
sba(ibasic
Map_Basic
p212
(dp213
g8
I0
sg9
I1
sg10
I0
sbaa(lp214
(ibasic
Map_Basic
p215
(dp216
g8
I0
sg9
I1
sg10
I0
sba(ibasic
Map_Mirror
p217
(dp218
g8
I6
sg9
I1
sg10
I1
sS'out'
p219
(I7
I14
tp220
sba(ibasic
Map_Basic
p221
(dp222
g8
I0
sg9
I1
sg10
I0
sba(ibasic
Map_Basic
p223
(dp224
g8
I0
sg9
I1
sg10
I0
sba(ibasic
Map_Basic
p225
(dp226
g8
I2
sg9
I3
sg10
I0
sba(ibasic
Map_Basic
p227
(dp228
g8
I2
sg9
I3
sg10
I0
sba(ibasic
Map_Basic
p229
(dp230
g8
I2
sg9
I3
sg10
I0
sba(ibasic
Map_Basic
p231
(dp232
g8
I2
sg9
I3
sg10
I0
sba(ibasic
Map_Basic
p233
(dp234
g8
I2
sg9
I3
sg10
I0
sba(ibasic
Map_Basic
p235
(dp236
g8
I2
sg9
I3
sg10
I0
sba(ibasic
Map_Basic
p237
(dp238
g8
I2
sg9
I3
sg10
I0
sba(ibasic
Map_Basic
p239
(dp240
g8
I2
sg9
I3
sg10
I0
sba(ibasic
Map_Basic
p241
(dp242
g8
I2
sg9
I3
sg10
I0
sba(ibasic
Map_Basic
p243
(dp244
g8
I2
sg9
I3
sg10
I0
sba(ibasic
Map_Basic
p245
(dp246
g8
I2
sg9
I3
sg10
I0
sba(ibasic
Map_Basic
p247
(dp248
g8
I2
sg9
I3
sg10
I0
sba(ibasic
Map_Basic
p249
(dp250
g8
I0
sg9
I1
sg10
I0
sba(ibasic
Map_Basic
p251
(dp252
g8
I0
sg9
I1
sg10
I0
sba(ibasic
Map_Mirror
p253
(dp254
g8
I6
sg9
I1
sg10
I1
sg219
(I7
I5
tp255
sba(ibasic
Map_Basic
p256
(dp257
g8
I0
sg9
I1
sg10
I0
sbaa(lp258
(ibasic
Map_Basic
p259
(dp260
g8
I3
sg9
I1
sg10
I0
sba(ibasic
Map_Basic
p261
(dp262
g8
I0
sg9
I1
sg10
I0
sba(ibasic
Map_Basic
p263
(dp264
g8
I0
sg9
I1
sg10
I0
sba(ibasic
Map_Basic
p265
(dp266
g8
I0
sg9
I1
sg10
I0
sba(ibasic
Map_Basic
p267
(dp268
g8
I2
sg9
I3
sg10
I0
sba(ibasic
Map_Basic
p269
(dp270
g8
I2
sg9
I3
sg10
I0
sba(ibasic
Map_Basic
p271
(dp272
g8
I3
sg9
I1
sg10
I0
sba(ibasic
Map_Basic
p273
(dp274
g8
I2
sg9
I3
sg10
I0
sba(ibasic
Map_Basic
p275
(dp276
g8
I2
sg9
I3
sg10
I0
sba(ibasic
Map_Basic
p277
(dp278
g8
I2
sg9
I3
sg10
I0
sba(ibasic
Map_Basic
p279
(dp280
g8
I2
sg9
I3
sg10
I0
sba(ibasic
Map_Basic
p281
(dp282
g8
I2
sg9
I3
sg10
I0
sba(ibasic
Map_Basic
p283
(dp284
g8
I2
sg9
I3
sg10
I0
sba(ibasic
Map_Basic
p285
(dp286
g8
I3
sg9
I1
sg10
I0
sba(ibasic
Map_Basic
p287
(dp288
g8
I2
sg9
I3
sg10
I0
sba(ibasic
Map_Basic
p289
(dp290
g8
I2
sg9
I3
sg10
I0
sba(ibasic
Map_Basic
p291
(dp292
g8
I0
sg9
I1
sg10
I0
sba(ibasic
Map_Basic
p293
(dp294
g8
I0
sg9
I1
sg10
I0
sba(ibasic
Map_Basic
p295
(dp296
g8
I0
sg9
I1
sg10
I0
sba(ibasic
Map_Basic
p297
(dp298
g8
I3
sg9
I1
sg10
I0
sbaa(lp299
(ibasic
Map_Basic
p300
(dp301
g8
I3
sg9
I1
sg10
I0
sba(ibasic
Map_Basic
p302
(dp303
g8
I0
sg9
I1
sg10
I0
sba(ibasic
Map_Basic
p304
(dp305
g8
I0
sg9
I1
sg10
I0
sba(ibasic
Map_Basic
p306
(dp307
g8
I0
sg9
I1
sg10
I0
sba(ibasic
Map_Basic
p308
(dp309
g8
I2
sg9
I3
sg10
I0
sba(ibasic
Map_Mirror
p310
(dp311
g8
I6
sg9
I1
sg10
I1
sg219
(I5
I18
tp312
sba(ibasic
Map_Basic
p313
(dp314
g8
I3
sg9
I1
sg10
I0
sba(ibasic
Map_Basic
p315
(dp316
g8
I2
sg9
I3
sg10
I0
sba(ibasic
Map_Basic
p317
(dp318
g8
I2
sg9
I3
sg10
I0
sba(ibasic
Map_Basic
p319
(dp320
g8
I2
sg9
I3
sg10
I0
sba(ibasic
Map_Basic
p321
(dp322
g8
I2
sg9
I3
sg10
I0
sba(ibasic
Map_Basic
p323
(dp324
g8
I2
sg9
I3
sg10
I0
sba(ibasic
Map_Basic
p325
(dp326
g8
I2
sg9
I3
sg10
I0
sba(ibasic
Map_Basic
p327
(dp328
g8
I3
sg9
I1
sg10
I0
sba(ibasic
Map_Mirror
p329
(dp330
g8
I6
sg9
I1
sg10
I1
sg219
(I5
I1
tp331
sba(ibasic
Map_Basic
p332
(dp333
g8
I2
sg9
I3
sg10
I0
sba(ibasic
Map_Basic
p334
(dp335
g8
I0
sg9
I1
sg10
I0
sba(ibasic
Map_Basic
p336
(dp337
g8
I0
sg9
I1
sg10
I0
sba(ibasic
Map_Basic
p338
(dp339
g8
I0
sg9
I1
sg10
I0
sba(ibasic
Map_Basic
p340
(dp341
g8
I3
sg9
I1
sg10
I0
sbaa(lp342
(ibasic
Map_Basic
p343
(dp344
g8
I3
sg9
I1
sg10
I0
sba(ibasic
Map_Basic
p345
(dp346
g8
I0
sg9
I1
sg10
I0
sba(ibasic
Map_Basic
p347
(dp348
g8
I0
sg9
I1
sg10
I0
sba(ibasic
Map_Basic
p349
(dp350
g8
I0
sg9
I1
sg10
I0
sba(ibasic
Map_Basic
p351
(dp352
g8
I0
sg9
I1
sg10
I0
sba(ibasic
Map_Basic
p353
(dp354
g8
I3
sg9
I1
sg10
I0
sba(ibasic
Map_Basic
p355
(dp356
g8
I2
sg9
I3
sg10
I0
sba(ibasic
Map_Basic
p357
(dp358
g8
I2
sg9
I3
sg10
I0
sba(ibasic
Map_Basic
p359
(dp360
g8
I2
sg9
I3
sg10
I0
sba(ibasic
Map_Basic
p361
(dp362
g8
I2
sg9
I3
sg10
I0
sba(ibasic
Map_Basic
p363
(dp364
g8
I2
sg9
I3
sg10
I0
sba(ibasic
Map_Basic
p365
(dp366
g8
I2
sg9
I3
sg10
I0
sba(ibasic
Map_Basic
p367
(dp368
g8
I2
sg9
I3
sg10
I0
sba(ibasic
Map_Basic
p369
(dp370
g8
I2
sg9
I3
sg10
I0
sba(ibasic
Map_Basic
p371
(dp372
g8
I3
sg9
I1
sg10
I0
sba(ibasic
Map_Basic
p373
(dp374
g8
I0
sg9
I1
sg10
I0
sba(ibasic
Map_Basic
p375
(dp376
g8
I0
sg9
I1
sg10
I0
sba(ibasic
Map_Basic
p377
(dp378
g8
I0
sg9
I1
sg10
I0
sba(ibasic
Map_Basic
p379
(dp380
g8
I0
sg9
I1
sg10
I0
sba(ibasic
Map_Basic
p381
(dp382
g8
I3
sg9
I1
sg10
I0
sbaa(lp383
(ibasic
Map_Basic
p384
(dp385
g8
I0
sg9
I1
sg10
I0
sba(ibasic
Map_Basic
p386
(dp387
g8
I0
sg9
I1
sg10
I0
sba(ibasic
Map_Basic
p388
(dp389
g8
I0
sg9
I1
sg10
I0
sba(ibasic
Map_Basic
p390
(dp391
g8
I0
sg9
I1
sg10
I0
sba(ibasic
Map_Basic
p392
(dp393
g8
I0
sg9
I1
sg10
I0
sba(ibasic
Map_Basic
p394
(dp395
g8
I0
sg9
I1
sg10
I0
sba(ibasic
Map_Basic
p396
(dp397
g8
I2
sg9
I3
sg10
I0
sba(ibasic
Map_Basic
p398
(dp399
g8
I2
sg9
I3
sg10
I0
sba(ibasic
Map_Basic
p400
(dp401
g8
I2
sg9
I3
sg10
I0
sba(ibasic
Map_Basic
p402
(dp403
g8
I2
sg9
I3
sg10
I0
sba(ibasic
Map_Basic
p404
(dp405
g8
I2
sg9
I3
sg10
I0
sba(ibasic
Map_Basic
p406
(dp407
g8
I2
sg9
I3
sg10
I0
sba(ibasic
Map_Basic
p408
(dp409
g8
I2
sg9
I3
sg10
I0
sba(ibasic
Map_Basic
p410
(dp411
g8
I2
sg9
I3
sg10
I0
sba(ibasic
Map_Basic
p412
(dp413
g8
I0
sg9
I1
sg10
I0
sba(ibasic
Map_Basic
p414
(dp415
g8
I0
sg9
I1
sg10
I0
sba(ibasic
Map_Basic
p416
(dp417
g8
I0
sg9
I1
sg10
I0
sba(ibasic
Map_Basic
p418
(dp419
g8
I0
sg9
I1
sg10
I0
sba(ibasic
Map_Basic
p420
(dp421
g8
I0
sg9
I1
sg10
I0
sba(ibasic
Map_Basic
p422
(dp423
g8
I0
sg9
I1
sg10
I0
sbaa(lp424
(ibasic
Map_Basic
p425
(dp426
g8
I0
sg9
I1
sg10
I0
sba(ibasic
Map_Basic
p427
(dp428
g8
I0
sg9
I1
sg10
I0
sba(ibasic
Map_Basic
p429
(dp430
g8
I0
sg9
I1
sg10
I0
sba(ibasic
Map_Basic
p431
(dp432
g8
I0
sg9
I1
sg10
I0
sba(ibasic
Map_Basic
p433
(dp434
g8
I0
sg9
I1
sg10
I0
sba(ibasic
Map_Basic
p435
(dp436
g8
I2
sg9
I3
sg10
I0
sba(ibasic
Map_Basic
p437
(dp438
g8
I2
sg9
I3
sg10
I0
sba(ibasic
Map_Basic
p439
(dp440
g8
I2
sg9
I3
sg10
I0
sba(ibasic
Map_Basic
p441
(dp442
g8
I2
sg9
I3
sg10
I0
sba(ibasic
Map_Basic
p443
(dp444
g8
I2
sg9
I3
sg10
I0
sba(ibasic
Map_Basic
p445
(dp446
g8
I2
sg9
I3
sg10
I0
sba(ibasic
Map_Basic
p447
(dp448
g8
I2
sg9
I3
sg10
I0
sba(ibasic
Map_Basic
p449
(dp450
g8
I2
sg9
I3
sg10
I0
sba(ibasic
Map_Basic
p451
(dp452
g8
I2
sg9
I3
sg10
I0
sba(ibasic
Map_Basic
p453
(dp454
g8
I2
sg9
I3
sg10
I0
sba(ibasic
Map_Basic
p455
(dp456
g8
I0
sg9
I1
sg10
I0
sba(ibasic
Map_Basic
p457
(dp458
g8
I0
sg9
I1
sg10
I0
sba(ibasic
Map_Basic
p459
(dp460
g8
I0
sg9
I1
sg10
I0
sba(ibasic
Map_Basic
p461
(dp462
g8
I0
sg9
I1
sg10
I0
sba(ibasic
Map_Basic
p463
(dp464
g8
I0
sg9
I1
sg10
I0
sbaa(lp465
(ibasic
Map_Basic
p466
(dp467
g8
I0
sg9
I1
sg10
I0
sba(ibasic
Map_Basic
p468
(dp469
g8
I0
sg9
I1
sg10
I0
sba(ibasic
Map_Basic
p470
(dp471
g8
I0
sg9
I1
sg10
I0
sba(ibasic
Map_Basic
p472
(dp473
g8
I0
sg9
I1
sg10
I0
sba(ibasic
Map_Basic
p474
(dp475
g8
I0
sg9
I1
sg10
I0
sba(ibasic
Map_Basic
p476
(dp477
g8
I0
sg9
I1
sg10
I0
sba(ibasic
Map_Basic
p478
(dp479
g8
I2
sg9
I3
sg10
I0
sba(ibasic
Map_Basic
p480
(dp481
g8
I2
sg9
I3
sg10
I0
sba(ibasic
Map_Basic
p482
(dp483
g8
I2
sg9
I3
sg10
I0
sba(ibasic
Map_Basic
p484
(dp485
g8
I2
sg9
I3
sg10
I0
sba(ibasic
Map_Basic
p486
(dp487
g8
I2
sg9
I3
sg10
I0
sba(ibasic
Map_Basic
p488
(dp489
g8
I2
sg9
I3
sg10
I0
sba(ibasic
Map_Basic
p490
(dp491
g8
I2
sg9
I3
sg10
I0
sba(ibasic
Map_Basic
p492
(dp493
g8
I2
sg9
I3
sg10
I0
sba(ibasic
Map_Basic
p494
(dp495
g8
I0
sg9
I1
sg10
I0
sba(ibasic
Map_Basic
p496
(dp497
g8
I0
sg9
I1
sg10
I0
sba(ibasic
Map_Basic
p498
(dp499
g8
I0
sg9
I1
sg10
I0
sba(ibasic
Map_Basic
p500
(dp501
g8
I0
sg9
I1
sg10
I0
sba(ibasic
Map_Basic
p502
(dp503
g8
I0
sg9
I1
sg10
I0
sba(ibasic
Map_Basic
p504
(dp505
g8
I0
sg9
I1
sg10
I0
sbaa(lp506
(ibasic
Map_Basic
p507
(dp508
g8
I0
sg9
I1
sg10
I0
sba(ibasic
Map_Basic
p509
(dp510
g8
I0
sg9
I1
sg10
I0
sba(ibasic
Map_Basic
p511
(dp512
g8
I0
sg9
I1
sg10
I0
sba(ibasic
Map_Basic
p513
(dp514
g8
I0
sg9
I1
sg10
I0
sba(ibasic
Map_Basic
p515
(dp516
g8
I0
sg9
I1
sg10
I0
sba(ibasic
Map_Basic
p517
(dp518
g8
I0
sg9
I1
sg10
I0
sba(ibasic
Map_Basic
p519
(dp520
g8
I0
sg9
I1
sg10
I0
sba(ibasic
Map_Basic
p521
(dp522
g8
I2
sg9
I3
sg10
I0
sba(ibasic
Map_Basic
p523
(dp524
g8
I2
sg9
I3
sg10
I0
sba(ibasic
Map_Basic
p525
(dp526
g8
I2
sg9
I3
sg10
I0
sba(ibasic
Map_Basic
p527
(dp528
g8
I2
sg9
I3
sg10
I0
sba(ibasic
Map_Basic
p529
(dp530
g8
I2
sg9
I3
sg10
I0
sba(ibasic
Map_Basic
p531
(dp532
g8
I2
sg9
I3
sg10
I0
sba(ibasic
Map_Basic
p533
(dp534
g8
I0
sg9
I1
sg10
I0
sba(ibasic
Map_Basic
p535
(dp536
g8
I0
sg9
I1
sg10
I0
sba(ibasic
Map_Basic
p537
(dp538
g8
I0
sg9
I1
sg10
I0
sba(ibasic
Map_Basic
p539
(dp540
g8
I0
sg9
I1
sg10
I0
sba(ibasic
Map_Basic
p541
(dp542
g8
I0
sg9
I1
sg10
I0
sba(ibasic
Map_Basic
p543
(dp544
g8
I0
sg9
I1
sg10
I0
sba(ibasic
Map_Basic
p545
(dp546
g8
I0
sg9
I1
sg10
I0
sbaa(lp547
(ibasic
Map_Basic
p548
(dp549
g8
I0
sg9
I1
sg10
I0
sba(ibasic
Map_Basic
p550
(dp551
g8
I0
sg9
I1
sg10
I0
sba(ibasic
Map_Basic
p552
(dp553
g8
I0
sg9
I1
sg10
I0
sba(ibasic
Map_Basic
p554
(dp555
g8
I0
sg9
I1
sg10
I0
sba(ibasic
Map_Basic
p556
(dp557
g8
I0
sg9
I1
sg10
I0
sba(ibasic
Map_Basic
p558
(dp559
g8
I0
sg9
I1
sg10
I0
sba(ibasic
Map_Basic
p560
(dp561
g8
I0
sg9
I1
sg10
I0
sba(ibasic
Map_Basic
p562
(dp563
g8
I2
sg9
I3
sg10
I0
sba(ibasic
Map_Basic
p564
(dp565
g8
I2
sg9
I3
sg10
I0
sba(ibasic
Map_Basic
p566
(dp567
g8
I2
sg9
I3
sg10
I0
sba(ibasic
Map_Basic
p568
(dp569
g8
I2
sg9
I3
sg10
I0
sba(ibasic
Map_Basic
p570
(dp571
g8
I2
sg9
I3
sg10
I0
sba(ibasic
Map_Basic
p572
(dp573
g8
I2
sg9
I3
sg10
I0
sba(ibasic
Map_Basic
p574
(dp575
g8
I0
sg9
I1
sg10
I0
sba(ibasic
Map_Basic
p576
(dp577
g8
I0
sg9
I1
sg10
I0
sba(ibasic
Map_Basic
p578
(dp579
g8
I0
sg9
I1
sg10
I0
sba(ibasic
Map_Basic
p580
(dp581
g8
I0
sg9
I1
sg10
I0
sba(ibasic
Map_Basic
p582
(dp583
g8
I0
sg9
I1
sg10
I0
sba(ibasic
Map_Basic
p584
(dp585
g8
I0
sg9
I1
sg10
I0
sba(ibasic
Map_Basic
p586
(dp587
g8
I0
sg9
I1
sg10
I0
sbaa(lp588
(ibasic
Map_Basic
p589
(dp590
g8
I0
sg9
I1
sg10
I0
sba(ibasic
Map_Basic
p591
(dp592
g8
I0
sg9
I1
sg10
I0
sba(ibasic
Map_Basic
p593
(dp594
g8
I0
sg9
I1
sg10
I0
sba(ibasic
Map_Basic
p595
(dp596
g8
I0
sg9
I1
sg10
I0
sba(ibasic
Map_Basic
p597
(dp598
g8
I0
sg9
I1
sg10
I0
sba(ibasic
Map_Basic
p599
(dp600
g8
I0
sg9
I1
sg10
I0
sba(ibasic
Map_Basic
p601
(dp602
g8
I2
sg9
I3
sg10
I0
sba(ibasic
Map_Basic
p603
(dp604
g8
I2
sg9
I3
sg10
I0
sba(ibasic
Map_Basic
p605
(dp606
g8
I2
sg9
I3
sg10
I0
sba(ibasic
Map_Basic
p607
(dp608
g8
I3
sg9
I1
sg10
I0
sba(ibasic
Map_Basic
p609
(dp610
g8
I3
sg9
I1
sg10
I0
sba(ibasic
Map_Basic
p611
(dp612
g8
I2
sg9
I3
sg10
I0
sba(ibasic
Map_Basic
p613
(dp614
g8
I2
sg9
I3
sg10
I0
sba(ibasic
Map_Basic
p615
(dp616
g8
I2
sg9
I3
sg10
I0
sba(ibasic
Map_Basic
p617
(dp618
g8
I0
sg9
I1
sg10
I0
sba(ibasic
Map_Basic
p619
(dp620
g8
I0
sg9
I1
sg10
I0
sba(ibasic
Map_Basic
p621
(dp622
g8
I0
sg9
I1
sg10
I0
sba(ibasic
Map_Basic
p623
(dp624
g8
I0
sg9
I1
sg10
I0
sba(ibasic
Map_Basic
p625
(dp626
g8
I0
sg9
I1
sg10
I0
sba(ibasic
Map_Basic
p627
(dp628
g8
I0
sg9
I1
sg10
I0
sbaa(lp629
(ibasic
Map_Basic
p630
(dp631
g8
I0
sg9
I1
sg10
I0
sba(ibasic
Map_Basic
p632
(dp633
g8
I0
sg9
I1
sg10
I0
sba(ibasic
Map_Basic
p634
(dp635
g8
I0
sg9
I1
sg10
I0
sba(ibasic
Map_Basic
p636
(dp637
g8
I0
sg9
I1
sg10
I0
sba(ibasic
Map_Basic
p638
(dp639
g8
I2
sg9
I3
sg10
I0
sba(ibasic
Map_Basic
p640
(dp641
g8
I2
sg9
I3
sg10
I0
sba(ibasic
Map_Basic
p642
(dp643
g8
I2
sg9
I3
sg10
I0
sba(ibasic
Map_Basic
p644
(dp645
g8
I2
sg9
I3
sg10
I0
sba(ibasic
Map_Basic
p646
(dp647
g8
I2
sg9
I3
sg10
I0
sba(ibasic
Map_Basic
p648
(dp649
g8
I2
sg9
I3
sg10
I0
sba(ibasic
Map_Basic
p650
(dp651
g8
I2
sg9
I3
sg10
I0
sba(ibasic
Map_Basic
p652
(dp653
g8
I2
sg9
I3
sg10
I0
sba(ibasic
Map_Basic
p654
(dp655
g8
I2
sg9
I3
sg10
I0
sba(ibasic
Map_Basic
p656
(dp657
g8
I2
sg9
I3
sg10
I0
sba(ibasic
Map_Basic
p658
(dp659
g8
I2
sg9
I3
sg10
I0
sba(ibasic
Map_Basic
p660
(dp661
g8
I2
sg9
I3
sg10
I0
sba(ibasic
Map_Basic
p662
(dp663
g8
I0
sg9
I1
sg10
I0
sba(ibasic
Map_Basic
p664
(dp665
g8
I0
sg9
I1
sg10
I0
sba(ibasic
Map_Basic
p666
(dp667
g8
I0
sg9
I1
sg10
I0
sba(ibasic
Map_Basic
p668
(dp669
g8
I0
sg9
I1
sg10
I0
sbaa(lp670
(ibasic
Map_Basic
p671
(dp672
g8
I0
sg9
I1
sg10
I0
sba(ibasic
Map_Basic
p673
(dp674
g8
I0
sg9
I1
sg10
I0
sba(ibasic
Map_Basic
p675
(dp676
g8
I0
sg9
I1
sg10
I0
sba(ibasic
Map_Basic
p677
(dp678
g8
I0
sg9
I1
sg10
I0
sba(ibasic
Map_Basic
p679
(dp680
g8
I2
sg9
I3
sg10
I0
sba(ibasic
Map_Basic
p681
(dp682
g8
I2
sg9
I3
sg10
I0
sba(ibasic
Map_Basic
p683
(dp684
g8
I2
sg9
I3
sg10
I0
sba(ibasic
Map_Basic
p685
(dp686
g8
I2
sg9
I3
sg10
I0
sba(ibasic
Map_Basic
p687
(dp688
g8
I2
sg9
I3
sg10
I0
sba(ibasic
Map_Basic
p689
(dp690
g8
I2
sg9
I3
sg10
I0
sba(ibasic
Map_Basic
p691
(dp692
g8
I2
sg9
I3
sg10
I0
sba(ibasic
Map_Basic
p693
(dp694
g8
I2
sg9
I3
sg10
I0
sba(ibasic
Map_Basic
p695
(dp696
g8
I2
sg9
I3
sg10
I0
sba(ibasic
Map_Basic
p697
(dp698
g8
I2
sg9
I3
sg10
I0
sba(ibasic
Map_Basic
p699
(dp700
g8
I2
sg9
I3
sg10
I0
sba(ibasic
Map_Basic
p701
(dp702
g8
I2
sg9
I3
sg10
I0
sba(ibasic
Map_Basic
p703
(dp704
g8
I0
sg9
I1
sg10
I0
sba(ibasic
Map_Basic
p705
(dp706
g8
I0
sg9
I1
sg10
I0
sba(ibasic
Map_Basic
p707
(dp708
g8
I0
sg9
I1
sg10
I0
sba(ibasic
Map_Basic
p709
(dp710
g8
I0
sg9
I1
sg10
I0
sbaa(lp711
(ibasic
Map_Basic
p712
(dp713
g8
I3
sg9
I1
sg10
I0
sba(ibasic
Map_Basic
p714
(dp715
g8
I0
sg9
I1
sg10
I0
sba(ibasic
Map_Basic
p716
(dp717
g8
I0
sg9
I1
sg10
I0
sba(ibasic
Map_Basic
p718
(dp719
g8
I3
sg9
I1
sg10
I0
sba(ibasic
Map_Basic
p720
(dp721
g8
I2
sg9
I3
sg10
I0
sba(ibasic
Map_Basic
p722
(dp723
g8
I2
sg9
I3
sg10
I0
sba(ibasic
Map_Basic
p724
(dp725
g8
I2
sg9
I3
sg10
I0
sba(ibasic
Map_Basic
p726
(dp727
g8
I2
sg9
I3
sg10
I0
sba(ibasic
Map_Basic
p728
(dp729
g8
I3
sg9
I1
sg10
I0
sba(ibasic
Map_Basic
p730
(dp731
g8
I3
sg9
I1
sg10
I0
sba(ibasic
Map_Basic
p732
(dp733
g8
I3
sg9
I1
sg10
I0
sba(ibasic
Map_Basic
p734
(dp735
g8
I3
sg9
I1
sg10
I0
sba(ibasic
Map_Basic
p736
(dp737
g8
I2
sg9
I3
sg10
I0
sba(ibasic
Map_Basic
p738
(dp739
g8
I2
sg9
I3
sg10
I0
sba(ibasic
Map_Basic
p740
(dp741
g8
I2
sg9
I3
sg10
I0
sba(ibasic
Map_Basic
p742
(dp743
g8
I2
sg9
I3
sg10
I0
sba(ibasic
Map_Basic
p744
(dp745
g8
I3
sg9
I1
sg10
I0
sba(ibasic
Map_Basic
p746
(dp747
g8
I0
sg9
I1
sg10
I0
sba(ibasic
Map_Basic
p748
(dp749
g8
I0
sg9
I1
sg10
I0
sba(ibasic
Map_Basic
p750
(dp751
g8
I3
sg9
I1
sg10
I0
sbaasS'base'
p752
(lp753
(lp754
(ibasic
Base_Unit
p755
(dp756
g8
I6
sS'strength'
p757
I20
sS'move_speed'
p758
I0
sS'life'
p759
I55
sS'up'
p760
I0
sS'defence'
p761
I14
sg152
I0
sS'position'
p762
(I13
I0
tp763
sS'move_range'
p764
I5
sS'agility'
p765
I0
sS'attack_range'
p766
(lp767
I1
aI1
asba(ibasic
Base_Unit
p768
(dp769
g8
I0
sg757
I18
sg758
I1
sg759
I25
sg760
I0
sg761
I12
sg152
I0
sg762
(I12
I1
tp770
sg764
I6
sg765
I0
sg766
(lp771
I1
aI1
asba(ibasic
Base_Unit
p772
(dp773
g8
I1
sg757
I17
sg758
I2
sg759
I25
sg760
I0
sg761
I13
sg152
I0
sg762
(I14
I1
tp774
sg764
I7
sg765
I0
sg766
(lp775
I1
aI1
asba(ibasic
Base_Unit
p776
(dp777
g8
I2
sg757
I17
sg758
I3
sg759
I25
sg760
I0
sg761
I12
sg152
I0
sg762
(I12
I3
tp778
sg764
I6
sg765
I0
sg766
(lp779
I2
aI2
asba(ibasic
Base_Unit
p780
(dp781
g8
I3
sg757
I15
sg758
I4
sg759
I21
sg760
I0
sg761
I12
sg152
I0
sg762
(I10
I8
tp782
sg764
I8
sg765
I0
sg766
(lp783
I1
aI1
asba(ibasic
Base_Unit
p784
(dp785
g8
I4
sg757
I17
sg758
I5
sg759
I30
sg760
I0
sg761
I14
sg152
I0
sg762
(I14
I4
tp786
sg764
I5
sg765
I0
sg766
(lp787
I1
aI1
asba(ibasic
Base_Unit
p788
(dp789
g8
I5
sg757
I10
sg758
I6
sg759
I21
sg760
I0
sg761
I12
sg152
I0
sg762
(I13
I2
tp790
sg764
I6
sg765
I0
sg766
(lp791
I0
aI0
asbaa(lp792
(ibasic
Base_Unit
p793
(dp794
g8
I6
sg757
I20
sg758
I0
sg759
I55
sg760
I0
sg761
I14
sg152
I0
sg762
(I13
I19
tp795
sg764
I5
sg765
I0
sg766
g767
sba(ibasic
Base_Unit
p796
(dp797
g8
I0
sg757
I18
sg758
I1
sg759
I25
sg760
I0
sg761
I12
sg152
I0
sg762
(I12
I18
tp798
sg764
I6
sg765
I0
sg766
g771
sba(ibasic
Base_Unit
p799
(dp800
g8
I1
sg757
I17
sg758
I2
sg759
I25
sg760
I0
sg761
I13
sg152
I0
sg762
(I14
I18
tp801
sg764
I7
sg765
I0
sg766
g775
sba(ibasic
Base_Unit
p802
(dp803
g8
I2
sg757
I17
sg758
I3
sg759
I25
sg760
I0
sg761
I12
sg152
I0
sg762
(I12
I16
tp804
sg764
I6
sg765
I0
sg766
g779
sba(ibasic
Base_Unit
p805
(dp806
g8
I3
sg757
I15
sg758
I4
sg759
I21
sg760
I0
sg761
I12
sg152
I0
sg762
(I10
I11
tp807
sg764
I8
sg765
I0
sg766
g783
sba(ibasic
Base_Unit
p808
(dp809
g8
I4
sg757
I17
sg758
I5
sg759
I30
sg760
I0
sg761
I14
sg152
I0
sg762
(I14
I15
tp810
sg764
I5
sg765
I0
sg766
g787
sba(ibasic
Base_Unit
p811
(dp812
g8
I5
sg757
I10
sg758
I6
sg759
I21
sg760
I0
sg761
I12
sg152
I0
sg762
(I13
I17
tp813
sg764
I6
sg765
I0
sg766
g791
sbaasS'hero_type'
p814
(lp815
I7
aI6
asb.